
fapo.elf:     file format elf32-avr

Sections:
Idx Name          Size      VMA       LMA       File off  Algn
  0 .data         0000002a  00800100  00002634  000026c8  2**0
                  CONTENTS, ALLOC, LOAD, DATA
  1 .text         00002634  00000000  00000000  00000094  2**1
                  CONTENTS, ALLOC, LOAD, READONLY, CODE
  2 .bss          0000002b  0080012a  0080012a  000026f2  2**0
                  ALLOC
  3 .comment      0000005c  00000000  00000000  000026f2  2**0
                  CONTENTS, READONLY
  4 .note.gnu.avr.deviceinfo 00000040  00000000  00000000  00002750  2**2
                  CONTENTS, READONLY
  5 .debug_aranges 000002e8  00000000  00000000  00002790  2**3
                  CONTENTS, READONLY, DEBUGGING
  6 .debug_info   000027e7  00000000  00000000  00002a78  2**0
                  CONTENTS, READONLY, DEBUGGING
  7 .debug_abbrev 00000dd7  00000000  00000000  0000525f  2**0
                  CONTENTS, READONLY, DEBUGGING
  8 .debug_line   0000196c  00000000  00000000  00006036  2**0
                  CONTENTS, READONLY, DEBUGGING
  9 .debug_frame  00000754  00000000  00000000  000079a4  2**2
                  CONTENTS, READONLY, DEBUGGING
 10 .debug_str    00000a3d  00000000  00000000  000080f8  2**0
                  CONTENTS, READONLY, DEBUGGING
 11 .debug_loc    00001d12  00000000  00000000  00008b35  2**0
                  CONTENTS, READONLY, DEBUGGING
 12 .debug_ranges 000001f0  00000000  00000000  0000a847  2**0
                  CONTENTS, READONLY, DEBUGGING

Disassembly of section .text:

00000000 <__vectors>:
       0:	0c 94 b5 00 	jmp	0x16a	; 0x16a <__ctors_end>
       4:	0c 94 d2 00 	jmp	0x1a4	; 0x1a4 <__bad_interrupt>
       8:	0c 94 d2 00 	jmp	0x1a4	; 0x1a4 <__bad_interrupt>
       c:	0c 94 f1 04 	jmp	0x9e2	; 0x9e2 <__vector_3>
      10:	0c 94 14 05 	jmp	0xa28	; 0xa28 <__vector_4>
      14:	0c 94 d2 00 	jmp	0x1a4	; 0x1a4 <__bad_interrupt>
      18:	0c 94 d2 00 	jmp	0x1a4	; 0x1a4 <__bad_interrupt>
      1c:	0c 94 d2 00 	jmp	0x1a4	; 0x1a4 <__bad_interrupt>
      20:	0c 94 d2 00 	jmp	0x1a4	; 0x1a4 <__bad_interrupt>
      24:	0c 94 68 05 	jmp	0xad0	; 0xad0 <__vector_9>
      28:	0c 94 d2 00 	jmp	0x1a4	; 0x1a4 <__bad_interrupt>
      2c:	0c 94 d2 00 	jmp	0x1a4	; 0x1a4 <__bad_interrupt>
      30:	0c 94 d2 00 	jmp	0x1a4	; 0x1a4 <__bad_interrupt>
      34:	0c 94 d2 00 	jmp	0x1a4	; 0x1a4 <__bad_interrupt>
      38:	0c 94 d2 00 	jmp	0x1a4	; 0x1a4 <__bad_interrupt>
      3c:	0c 94 d2 00 	jmp	0x1a4	; 0x1a4 <__bad_interrupt>
      40:	0c 94 8f 04 	jmp	0x91e	; 0x91e <__vector_16>
      44:	0c 94 d2 00 	jmp	0x1a4	; 0x1a4 <__bad_interrupt>
      48:	0c 94 d2 00 	jmp	0x1a4	; 0x1a4 <__bad_interrupt>
      4c:	0c 94 d2 00 	jmp	0x1a4	; 0x1a4 <__bad_interrupt>
      50:	0c 94 d2 00 	jmp	0x1a4	; 0x1a4 <__bad_interrupt>
      54:	0c 94 d2 00 	jmp	0x1a4	; 0x1a4 <__bad_interrupt>
      58:	0c 94 d2 00 	jmp	0x1a4	; 0x1a4 <__bad_interrupt>
      5c:	0c 94 d2 00 	jmp	0x1a4	; 0x1a4 <__bad_interrupt>
      60:	0c 94 d2 00 	jmp	0x1a4	; 0x1a4 <__bad_interrupt>
      64:	0c 94 d2 00 	jmp	0x1a4	; 0x1a4 <__bad_interrupt>

00000068 <__trampolines_end>:
      68:	6e 61       	ori	r22, 0x1E	; 30
      6a:	6e 00       	.word	0x006e	; ????

0000006c <__c.2332>:
      6c:	69 6e 66 00 00 40 7a 10 f3 5a 00 a0 72 4e 18 09     inf..@z..Z..rN..
      7c:	00 10 a5 d4 e8 00 00 e8 76 48 17 00 00 e4 0b 54     ........vH.....T
      8c:	02 00 00 ca 9a 3b 00 00 00 e1 f5 05 00 00 80 96     .....;..........
      9c:	98 00 00 00 40 42 0f 00 00 00 a0 86 01 00 00 00     ....@B..........
      ac:	10 27 00 00 00 00 e8 03 00 00 00 00 64 00 00 00     .'..........d...
      bc:	00 00 0a 00 00 00 00 00 01 00 00 00 00 00 2c 76     ..............,v
      cc:	d8 88 dc 67 4f 08 23 df c1 df ae 59 e1 b1 b7 96     ...gO.#....Y....
      dc:	e5 e3 e4 53 c6 3a e6 51 99 76 96 e8 e6 c2 84 26     ...S.:.Q.v.....&
      ec:	eb 89 8c 9b 62 ed 40 7c 6f fc ef bc 9c 9f 40 f2     ....b.@|o.....@.
      fc:	ba a5 6f a5 f4 90 05 5a 2a f7 5c 93 6b 6c f9 67     ..o....Z*.\.kl.g
     10c:	6d c1 1b fc e0 e4 0d 47 fe f5 20 e6 b5 00 d0 ed     m......G.. .....
     11c:	90 2e 03 00 94 35 77 05 00 80 84 1e 08 00 00 20     .....5w........ 
     12c:	4e 0a 00 00 00 c8 0c 33 33 33 33 0f 98 6e 12 83     N......3333..n..
     13c:	11 41 ef 8d 21 14 89 3b e6 55 16 cf fe e6 db 18     .A..!..;.U......
     14c:	d1 84 4b 38 1b f7 7c 1d 90 1d a4 bb e4 24 20 32     ..K8..|......$ 2
     15c:	84 72 5e 22 81 00 c9 f1 24 ec a1 e5 3d 27           .r^"....$...='

0000016a <__ctors_end>:
     16a:	11 24       	eor	r1, r1
     16c:	1f be       	out	0x3f, r1	; 63
     16e:	cf ef       	ldi	r28, 0xFF	; 255
     170:	d8 e0       	ldi	r29, 0x08	; 8
     172:	de bf       	out	0x3e, r29	; 62
     174:	cd bf       	out	0x3d, r28	; 61

00000176 <__do_copy_data>:
     176:	11 e0       	ldi	r17, 0x01	; 1
     178:	a0 e0       	ldi	r26, 0x00	; 0
     17a:	b1 e0       	ldi	r27, 0x01	; 1
     17c:	e4 e3       	ldi	r30, 0x34	; 52
     17e:	f6 e2       	ldi	r31, 0x26	; 38
     180:	02 c0       	rjmp	.+4      	; 0x186 <__do_copy_data+0x10>
     182:	05 90       	lpm	r0, Z+
     184:	0d 92       	st	X+, r0
     186:	aa 32       	cpi	r26, 0x2A	; 42
     188:	b1 07       	cpc	r27, r17
     18a:	d9 f7       	brne	.-10     	; 0x182 <__do_copy_data+0xc>

0000018c <__do_clear_bss>:
     18c:	21 e0       	ldi	r18, 0x01	; 1
     18e:	aa e2       	ldi	r26, 0x2A	; 42
     190:	b1 e0       	ldi	r27, 0x01	; 1
     192:	01 c0       	rjmp	.+2      	; 0x196 <.do_clear_bss_start>

00000194 <.do_clear_bss_loop>:
     194:	1d 92       	st	X+, r1

00000196 <.do_clear_bss_start>:
     196:	a5 35       	cpi	r26, 0x55	; 85
     198:	b2 07       	cpc	r27, r18
     19a:	e1 f7       	brne	.-8      	; 0x194 <.do_clear_bss_loop>
     19c:	0e 94 44 09 	call	0x1288	; 0x1288 <main>
     1a0:	0c 94 18 13 	jmp	0x2630	; 0x2630 <_exit>

000001a4 <__bad_interrupt>:
     1a4:	0c 94 00 00 	jmp	0	; 0x0 <__vectors>

000001a8 <keeloq_encrypt>:
	}
	*key = keybak;
}

void keeloq_encrypt(uint32_t* code, uint64_t* key)
{
     1a8:	2f 92       	push	r2
     1aa:	3f 92       	push	r3
     1ac:	4f 92       	push	r4
     1ae:	5f 92       	push	r5
     1b0:	6f 92       	push	r6
     1b2:	7f 92       	push	r7
     1b4:	8f 92       	push	r8
     1b6:	9f 92       	push	r9
     1b8:	af 92       	push	r10
     1ba:	bf 92       	push	r11
     1bc:	cf 92       	push	r12
     1be:	df 92       	push	r13
     1c0:	ef 92       	push	r14
     1c2:	ff 92       	push	r15
     1c4:	0f 93       	push	r16
     1c6:	1f 93       	push	r17
     1c8:	cf 93       	push	r28
     1ca:	df 93       	push	r29
     1cc:	cd b7       	in	r28, 0x3d	; 61
     1ce:	de b7       	in	r29, 0x3e	; 62
     1d0:	60 97       	sbiw	r28, 0x10	; 16
     1d2:	0f b6       	in	r0, 0x3f	; 63
     1d4:	f8 94       	cli
     1d6:	de bf       	out	0x3e, r29	; 62
     1d8:	0f be       	out	0x3f, r0	; 63
     1da:	cd bf       	out	0x3d, r28	; 61
     1dc:	4c 01       	movw	r8, r24
     1de:	7d 87       	std	Y+13, r23	; 0x0d
     1e0:	6c 87       	std	Y+12, r22	; 0x0c
	uint16_t i;
	uint64_t keybak;
	keybak = *key;
     1e2:	db 01       	movw	r26, r22
     1e4:	bc 91       	ld	r27, X
     1e6:	bc 83       	std	Y+4, r27	; 0x04
     1e8:	fb 01       	movw	r30, r22
     1ea:	f1 81       	ldd	r31, Z+1	; 0x01
     1ec:	fd 83       	std	Y+5, r31	; 0x05
     1ee:	db 01       	movw	r26, r22
     1f0:	12 96       	adiw	r26, 0x02	; 2
     1f2:	bc 91       	ld	r27, X
     1f4:	be 83       	std	Y+6, r27	; 0x06
     1f6:	fb 01       	movw	r30, r22
     1f8:	f3 81       	ldd	r31, Z+3	; 0x03
     1fa:	ff 83       	std	Y+7, r31	; 0x07
     1fc:	db 01       	movw	r26, r22
     1fe:	14 96       	adiw	r26, 0x04	; 4
     200:	bc 91       	ld	r27, X
     202:	b8 87       	std	Y+8, r27	; 0x08
     204:	fb 01       	movw	r30, r22
     206:	f5 81       	ldd	r31, Z+5	; 0x05
     208:	f9 87       	std	Y+9, r31	; 0x09
     20a:	db 01       	movw	r26, r22
     20c:	16 96       	adiw	r26, 0x06	; 6
     20e:	bc 91       	ld	r27, X
     210:	ba 87       	std	Y+10, r27	; 0x0a
     212:	fb 01       	movw	r30, r22
     214:	f7 81       	ldd	r31, Z+7	; 0x07
     216:	fb 87       	std	Y+11, r31	; 0x0b
     218:	2c 81       	ldd	r18, Y+4	; 0x04
     21a:	3d 81       	ldd	r19, Y+5	; 0x05
     21c:	4e 81       	ldd	r20, Y+6	; 0x06
     21e:	5f 81       	ldd	r21, Y+7	; 0x07
     220:	68 85       	ldd	r22, Y+8	; 0x08
     222:	79 85       	ldd	r23, Y+9	; 0x09
     224:	8b 2f       	mov	r24, r27
     226:	9f 2f       	mov	r25, r31
     228:	e0 e1       	ldi	r30, 0x10	; 16
     22a:	f0 e0       	ldi	r31, 0x00	; 0
	for (i = 0;i < 16;++i)
	{
		uint8_t tmp; tmp = *key >> 63; *key <<= 1; *key |= tmp;
     22c:	01 e0       	ldi	r16, 0x01	; 1
     22e:	0e 94 ef 10 	call	0x21de	; 0x21de <__rotldi3>
     232:	31 97       	sbiw	r30, 0x01	; 1
void keeloq_encrypt(uint32_t* code, uint64_t* key)
{
	uint16_t i;
	uint64_t keybak;
	keybak = *key;
	for (i = 0;i < 16;++i)
     234:	d9 f7       	brne	.-10     	; 0x22c <keeloq_encrypt+0x84>
     236:	ec 85       	ldd	r30, Y+12	; 0x0c
     238:	fd 85       	ldd	r31, Y+13	; 0x0d
     23a:	20 83       	st	Z, r18
     23c:	31 83       	std	Z+1, r19	; 0x01
     23e:	42 83       	std	Z+2, r20	; 0x02
     240:	53 83       	std	Z+3, r21	; 0x03
     242:	64 83       	std	Z+4, r22	; 0x04
     244:	75 83       	std	Z+5, r23	; 0x05
     246:	86 83       	std	Z+6, r24	; 0x06
     248:	97 83       	std	Z+7, r25	; 0x07
     24a:	68 94       	set
     24c:	22 24       	eor	r2, r2
     24e:	24 f8       	bld	r2, 4
     250:	33 24       	eor	r3, r3
     252:	31 f8       	bld	r3, 1
		if (*code & 512) nlfshift |= 2;
		if (*code & 0x100000) nlfshift |= 4;
		nlfind = (*code & 0x4000000) ? 1 : 0;
		if (*code & 0x80000000) nlfind |= 2;
		r = (NLF[nlfind] >> nlfshift) & 1;
		if (*key & 0x10000) r ^= 1;
     254:	aa 24       	eor	r10, r10
     256:	a3 94       	inc	r10
	}

	for (i = 0; i < 528; ++i)
	{
		uint8_t nlfshift, nlfind, tmp, r;
		nlfshift = *code & 2 ? 1 : 0;
     258:	d4 01       	movw	r26, r8
     25a:	cd 90       	ld	r12, X+
     25c:	dd 90       	ld	r13, X+
     25e:	ed 90       	ld	r14, X+
     260:	fc 90       	ld	r15, X
     262:	d7 01       	movw	r26, r14
     264:	c6 01       	movw	r24, r12
     266:	b6 95       	lsr	r27
     268:	a7 95       	ror	r26
     26a:	97 95       	ror	r25
     26c:	87 95       	ror	r24
     26e:	28 2f       	mov	r18, r24
     270:	21 70       	andi	r18, 0x01	; 1
		if (*code & 512) nlfshift |= 2;
     272:	d1 fc       	sbrc	r13, 1
     274:	22 60       	ori	r18, 0x02	; 2
		if (*code & 0x100000) nlfshift |= 4;
     276:	e4 fc       	sbrc	r14, 4
     278:	24 60       	ori	r18, 0x04	; 4
		nlfind = (*code & 0x4000000) ? 1 : 0;
     27a:	d7 01       	movw	r26, r14
     27c:	c6 01       	movw	r24, r12
     27e:	07 2e       	mov	r0, r23
     280:	7a e1       	ldi	r23, 0x1A	; 26
     282:	b6 95       	lsr	r27
     284:	a7 95       	ror	r26
     286:	97 95       	ror	r25
     288:	87 95       	ror	r24
     28a:	7a 95       	dec	r23
     28c:	d1 f7       	brne	.-12     	; 0x282 <keeloq_encrypt+0xda>
     28e:	70 2d       	mov	r23, r0
     290:	81 70       	andi	r24, 0x01	; 1
		if (*code & 0x80000000) nlfind |= 2;
     292:	ff 20       	and	r15, r15
     294:	0c f4       	brge	.+2      	; 0x298 <keeloq_encrypt+0xf0>
     296:	82 60       	ori	r24, 0x02	; 2
		r = (NLF[nlfind] >> nlfshift) & 1;
     298:	e8 2f       	mov	r30, r24
     29a:	f0 e0       	ldi	r31, 0x00	; 0
     29c:	e9 5f       	subi	r30, 0xF9	; 249
     29e:	fe 4f       	sbci	r31, 0xFE	; 254
     2a0:	80 81       	ld	r24, Z
     2a2:	90 e0       	ldi	r25, 0x00	; 0
     2a4:	02 c0       	rjmp	.+4      	; 0x2aa <keeloq_encrypt+0x102>
     2a6:	95 95       	asr	r25
     2a8:	87 95       	ror	r24
     2aa:	2a 95       	dec	r18
     2ac:	e2 f7       	brpl	.-8      	; 0x2a6 <keeloq_encrypt+0xfe>
     2ae:	b8 2f       	mov	r27, r24
     2b0:	b1 70       	andi	r27, 0x01	; 1
     2b2:	be 87       	std	Y+14, r27	; 0x0e
		if (*key & 0x10000) r ^= 1;
     2b4:	ec 85       	ldd	r30, Y+12	; 0x0c
     2b6:	fd 85       	ldd	r31, Y+13	; 0x0d
     2b8:	10 81       	ld	r17, Z
     2ba:	e1 81       	ldd	r30, Z+1	; 0x01
     2bc:	ac 85       	ldd	r26, Y+12	; 0x0c
     2be:	bd 85       	ldd	r27, Y+13	; 0x0d
     2c0:	12 96       	adiw	r26, 0x02	; 2
     2c2:	bc 91       	ld	r27, X
     2c4:	bf 87       	std	Y+15, r27	; 0x0f
     2c6:	ac 85       	ldd	r26, Y+12	; 0x0c
     2c8:	bd 85       	ldd	r27, Y+13	; 0x0d
     2ca:	13 96       	adiw	r26, 0x03	; 3
     2cc:	4c 90       	ld	r4, X
     2ce:	13 97       	sbiw	r26, 0x03	; 3
     2d0:	14 96       	adiw	r26, 0x04	; 4
     2d2:	5c 90       	ld	r5, X
     2d4:	14 97       	sbiw	r26, 0x04	; 4
     2d6:	15 96       	adiw	r26, 0x05	; 5
     2d8:	6c 90       	ld	r6, X
     2da:	15 97       	sbiw	r26, 0x05	; 5
     2dc:	16 96       	adiw	r26, 0x06	; 6
     2de:	7c 90       	ld	r7, X
     2e0:	16 97       	sbiw	r26, 0x06	; 6
     2e2:	17 96       	adiw	r26, 0x07	; 7
     2e4:	bc 90       	ld	r11, X
     2e6:	4f 85       	ldd	r20, Y+15	; 0x0f
     2e8:	41 70       	andi	r20, 0x01	; 1
     2ea:	20 e0       	ldi	r18, 0x00	; 0
     2ec:	30 e0       	ldi	r19, 0x00	; 0
     2ee:	50 e0       	ldi	r21, 0x00	; 0
     2f0:	60 e0       	ldi	r22, 0x00	; 0
     2f2:	70 e0       	ldi	r23, 0x00	; 0
     2f4:	80 e0       	ldi	r24, 0x00	; 0
     2f6:	90 e0       	ldi	r25, 0x00	; 0
     2f8:	a0 e0       	ldi	r26, 0x00	; 0
     2fa:	0e 94 13 11 	call	0x2226	; 0x2226 <__cmpdi2_s8>
     2fe:	19 f0       	breq	.+6      	; 0x306 <keeloq_encrypt+0x15e>
     300:	be 85       	ldd	r27, Y+14	; 0x0e
     302:	ba 25       	eor	r27, r10
     304:	be 87       	std	Y+14, r27	; 0x0e
		if (*code & 1) r ^= 1;
     306:	c0 fe       	sbrs	r12, 0
     308:	03 c0       	rjmp	.+6      	; 0x310 <keeloq_encrypt+0x168>
     30a:	fe 85       	ldd	r31, Y+14	; 0x0e
     30c:	fa 25       	eor	r31, r10
     30e:	fe 87       	std	Y+14, r31	; 0x0e
		if (*code & 0x10000) r ^= 1;
     310:	e0 fe       	sbrs	r14, 0
     312:	03 c0       	rjmp	.+6      	; 0x31a <keeloq_encrypt+0x172>
     314:	be 85       	ldd	r27, Y+14	; 0x0e
     316:	ba 25       	eor	r27, r10
     318:	be 87       	std	Y+14, r27	; 0x0e
		tmp = *key & 1; *key >>= 1; *key |= ((uint64_t)tmp) << 63; //rotate key
     31a:	21 2f       	mov	r18, r17
     31c:	21 70       	andi	r18, 0x01	; 1
     31e:	30 e0       	ldi	r19, 0x00	; 0
     320:	40 e0       	ldi	r20, 0x00	; 0
     322:	50 e0       	ldi	r21, 0x00	; 0
     324:	60 e0       	ldi	r22, 0x00	; 0
     326:	70 e0       	ldi	r23, 0x00	; 0
     328:	80 e0       	ldi	r24, 0x00	; 0
     32a:	90 e0       	ldi	r25, 0x00	; 0
     32c:	0f e3       	ldi	r16, 0x3F	; 63
     32e:	0e 94 b8 10 	call	0x2170	; 0x2170 <__ashldi3>
     332:	a2 2f       	mov	r26, r18
     334:	3b 83       	std	Y+3, r19	; 0x03
     336:	c4 2e       	mov	r12, r20
     338:	d5 2e       	mov	r13, r21
     33a:	e6 2e       	mov	r14, r22
     33c:	f7 2e       	mov	r15, r23
     33e:	88 8b       	std	Y+16, r24	; 0x10
     340:	f9 2f       	mov	r31, r25
     342:	21 2f       	mov	r18, r17
     344:	3e 2f       	mov	r19, r30
     346:	4f 85       	ldd	r20, Y+15	; 0x0f
     348:	54 2d       	mov	r21, r4
     34a:	65 2d       	mov	r22, r5
     34c:	76 2d       	mov	r23, r6
     34e:	87 2d       	mov	r24, r7
     350:	9b 2d       	mov	r25, r11
     352:	0a 2d       	mov	r16, r10
     354:	0e 94 d3 10 	call	0x21a6	; 0x21a6 <__lshrdi3>
     358:	2a 2b       	or	r18, r26
     35a:	ac 85       	ldd	r26, Y+12	; 0x0c
     35c:	bd 85       	ldd	r27, Y+13	; 0x0d
     35e:	2c 93       	st	X, r18
     360:	bb 81       	ldd	r27, Y+3	; 0x03
     362:	3b 2b       	or	r19, r27
     364:	ac 85       	ldd	r26, Y+12	; 0x0c
     366:	bd 85       	ldd	r27, Y+13	; 0x0d
     368:	11 96       	adiw	r26, 0x01	; 1
     36a:	3c 93       	st	X, r19
     36c:	11 97       	sbiw	r26, 0x01	; 1
     36e:	4c 29       	or	r20, r12
     370:	12 96       	adiw	r26, 0x02	; 2
     372:	4c 93       	st	X, r20
     374:	12 97       	sbiw	r26, 0x02	; 2
     376:	5d 29       	or	r21, r13
     378:	13 96       	adiw	r26, 0x03	; 3
     37a:	5c 93       	st	X, r21
     37c:	13 97       	sbiw	r26, 0x03	; 3
     37e:	6e 29       	or	r22, r14
     380:	14 96       	adiw	r26, 0x04	; 4
     382:	6c 93       	st	X, r22
     384:	14 97       	sbiw	r26, 0x04	; 4
     386:	7f 29       	or	r23, r15
     388:	15 96       	adiw	r26, 0x05	; 5
     38a:	7c 93       	st	X, r23
     38c:	b8 89       	ldd	r27, Y+16	; 0x10
     38e:	8b 2b       	or	r24, r27
     390:	ac 85       	ldd	r26, Y+12	; 0x0c
     392:	bd 85       	ldd	r27, Y+13	; 0x0d
     394:	16 96       	adiw	r26, 0x06	; 6
     396:	8c 93       	st	X, r24
     398:	16 97       	sbiw	r26, 0x06	; 6
     39a:	9f 2b       	or	r25, r31
     39c:	17 96       	adiw	r26, 0x07	; 7
     39e:	9c 93       	st	X, r25
		*code >>= 1; *code |= ((uint32_t)r) << 31; //shift code
     3a0:	f4 01       	movw	r30, r8
     3a2:	80 81       	ld	r24, Z
     3a4:	91 81       	ldd	r25, Z+1	; 0x01
     3a6:	a2 81       	ldd	r26, Z+2	; 0x02
     3a8:	b3 81       	ldd	r27, Z+3	; 0x03
     3aa:	ac 01       	movw	r20, r24
     3ac:	bd 01       	movw	r22, r26
     3ae:	76 95       	lsr	r23
     3b0:	67 95       	ror	r22
     3b2:	57 95       	ror	r21
     3b4:	47 95       	ror	r20
     3b6:	fe 85       	ldd	r31, Y+14	; 0x0e
     3b8:	8f 2f       	mov	r24, r31
     3ba:	90 e0       	ldi	r25, 0x00	; 0
     3bc:	a0 e0       	ldi	r26, 0x00	; 0
     3be:	b0 e0       	ldi	r27, 0x00	; 0
     3c0:	bb 27       	eor	r27, r27
     3c2:	86 95       	lsr	r24
     3c4:	b7 95       	ror	r27
     3c6:	aa 27       	eor	r26, r26
     3c8:	99 27       	eor	r25, r25
     3ca:	88 27       	eor	r24, r24
     3cc:	84 2b       	or	r24, r20
     3ce:	95 2b       	or	r25, r21
     3d0:	a6 2b       	or	r26, r22
     3d2:	b7 2b       	or	r27, r23
     3d4:	f4 01       	movw	r30, r8
     3d6:	80 83       	st	Z, r24
     3d8:	91 83       	std	Z+1, r25	; 0x01
     3da:	a2 83       	std	Z+2, r26	; 0x02
     3dc:	b3 83       	std	Z+3, r27	; 0x03
     3de:	f1 e0       	ldi	r31, 0x01	; 1
     3e0:	2f 1a       	sub	r2, r31
     3e2:	31 08       	sbc	r3, r1
	for (i = 0;i < 16;++i)
	{
		uint8_t tmp; tmp = *key >> 63; *key <<= 1; *key |= tmp;
	}

	for (i = 0; i < 528; ++i)
     3e4:	09 f0       	breq	.+2      	; 0x3e8 <keeloq_encrypt+0x240>
     3e6:	38 cf       	rjmp	.-400    	; 0x258 <keeloq_encrypt+0xb0>
     3e8:	ec 85       	ldd	r30, Y+12	; 0x0c
     3ea:	fd 85       	ldd	r31, Y+13	; 0x0d
		if (*code & 1) r ^= 1;
		if (*code & 0x10000) r ^= 1;
		tmp = *key & 1; *key >>= 1; *key |= ((uint64_t)tmp) << 63; //rotate key
		*code >>= 1; *code |= ((uint32_t)r) << 31; //shift code
	}
	*key = keybak;
     3ec:	bc 81       	ldd	r27, Y+4	; 0x04
     3ee:	b0 83       	st	Z, r27
     3f0:	bd 81       	ldd	r27, Y+5	; 0x05
     3f2:	b1 83       	std	Z+1, r27	; 0x01
     3f4:	be 81       	ldd	r27, Y+6	; 0x06
     3f6:	b2 83       	std	Z+2, r27	; 0x02
     3f8:	bf 81       	ldd	r27, Y+7	; 0x07
     3fa:	b3 83       	std	Z+3, r27	; 0x03
     3fc:	b8 85       	ldd	r27, Y+8	; 0x08
     3fe:	b4 83       	std	Z+4, r27	; 0x04
     400:	b9 85       	ldd	r27, Y+9	; 0x09
     402:	b5 83       	std	Z+5, r27	; 0x05
     404:	ba 85       	ldd	r27, Y+10	; 0x0a
     406:	b6 83       	std	Z+6, r27	; 0x06
     408:	bb 85       	ldd	r27, Y+11	; 0x0b
     40a:	b7 83       	std	Z+7, r27	; 0x07
}
     40c:	60 96       	adiw	r28, 0x10	; 16
     40e:	0f b6       	in	r0, 0x3f	; 63
     410:	f8 94       	cli
     412:	de bf       	out	0x3e, r29	; 62
     414:	0f be       	out	0x3f, r0	; 63
     416:	cd bf       	out	0x3d, r28	; 61
     418:	df 91       	pop	r29
     41a:	cf 91       	pop	r28
     41c:	1f 91       	pop	r17
     41e:	0f 91       	pop	r16
     420:	ff 90       	pop	r15
     422:	ef 90       	pop	r14
     424:	df 90       	pop	r13
     426:	cf 90       	pop	r12
     428:	bf 90       	pop	r11
     42a:	af 90       	pop	r10
     42c:	9f 90       	pop	r9
     42e:	8f 90       	pop	r8
     430:	7f 90       	pop	r7
     432:	6f 90       	pop	r6
     434:	5f 90       	pop	r5
     436:	4f 90       	pop	r4
     438:	3f 90       	pop	r3
     43a:	2f 90       	pop	r2
     43c:	08 95       	ret

0000043e <nrf24l01_readregister>:
}

//clear all interrupts in the status register
void nrf24l01_irq_clear_all()
{
	nrf24l01_writeregister(NRF24L01_REG_STATUS, (NRF24L01_REG_RX_DR) | (NRF24L01_REG_TX_DS) | (NRF24L01_REG_MAX_RT)); // clear all interrupts
     43e:	5f 98       	cbi	0x0b, 7	; 11
     440:	8f 71       	andi	r24, 0x1F	; 31
     442:	0e 94 64 03 	call	0x6c8	; 0x6c8 <SPI_rw>
     446:	8f ef       	ldi	r24, 0xFF	; 255
     448:	0e 94 64 03 	call	0x6c8	; 0x6c8 <SPI_rw>
     44c:	5f 9a       	sbi	0x0b, 7	; 11
     44e:	08 95       	ret

00000450 <nrf24l01_writeregister>:
     450:	cf 93       	push	r28
     452:	c6 2f       	mov	r28, r22
     454:	5f 98       	cbi	0x0b, 7	; 11
     456:	8f 71       	andi	r24, 0x1F	; 31
     458:	80 62       	ori	r24, 0x20	; 32
     45a:	0e 94 64 03 	call	0x6c8	; 0x6c8 <SPI_rw>
     45e:	8c 2f       	mov	r24, r28
     460:	0e 94 64 03 	call	0x6c8	; 0x6c8 <SPI_rw>
     464:	5f 9a       	sbi	0x0b, 7	; 11
     466:	cf 91       	pop	r28
     468:	08 95       	ret

0000046a <nrf24l01_writeregisters>:
     46a:	ef 92       	push	r14
     46c:	ff 92       	push	r15
     46e:	0f 93       	push	r16
     470:	1f 93       	push	r17
     472:	cf 93       	push	r28
     474:	df 93       	push	r29
     476:	7b 01       	movw	r14, r22
     478:	14 2f       	mov	r17, r20
     47a:	5f 98       	cbi	0x0b, 7	; 11
     47c:	8f 71       	andi	r24, 0x1F	; 31
     47e:	80 62       	ori	r24, 0x20	; 32
     480:	0e 94 64 03 	call	0x6c8	; 0x6c8 <SPI_rw>
     484:	11 23       	and	r17, r17
     486:	71 f0       	breq	.+28     	; 0x4a4 <nrf24l01_writeregisters+0x3a>
     488:	e7 01       	movw	r28, r14
     48a:	11 50       	subi	r17, 0x01	; 1
     48c:	01 2f       	mov	r16, r17
     48e:	10 e0       	ldi	r17, 0x00	; 0
     490:	0f 5f       	subi	r16, 0xFF	; 255
     492:	1f 4f       	sbci	r17, 0xFF	; 255
     494:	0e 0d       	add	r16, r14
     496:	1f 1d       	adc	r17, r15
     498:	89 91       	ld	r24, Y+
     49a:	0e 94 64 03 	call	0x6c8	; 0x6c8 <SPI_rw>
     49e:	c0 17       	cp	r28, r16
     4a0:	d1 07       	cpc	r29, r17
     4a2:	d1 f7       	brne	.-12     	; 0x498 <nrf24l01_writeregisters+0x2e>
     4a4:	5f 9a       	sbi	0x0b, 7	; 11
     4a6:	df 91       	pop	r29
     4a8:	cf 91       	pop	r28
     4aa:	1f 91       	pop	r17
     4ac:	0f 91       	pop	r16
     4ae:	ff 90       	pop	r15
     4b0:	ef 90       	pop	r14
     4b2:	08 95       	ret

000004b4 <nrf24l01_setrxaddr0>:
     4b4:	45 e0       	ldi	r20, 0x05	; 5
     4b6:	bc 01       	movw	r22, r24
     4b8:	8a e0       	ldi	r24, 0x0A	; 10
     4ba:	0e 94 35 02 	call	0x46a	; 0x46a <nrf24l01_writeregisters>
     4be:	08 95       	ret

000004c0 <nrf24l01_settxaddr>:
     4c0:	cf 93       	push	r28
     4c2:	df 93       	push	r29
     4c4:	ec 01       	movw	r28, r24
     4c6:	45 e0       	ldi	r20, 0x05	; 5
     4c8:	bc 01       	movw	r22, r24
     4ca:	8a e0       	ldi	r24, 0x0A	; 10
     4cc:	0e 94 35 02 	call	0x46a	; 0x46a <nrf24l01_writeregisters>
     4d0:	45 e0       	ldi	r20, 0x05	; 5
     4d2:	be 01       	movw	r22, r28
     4d4:	80 e1       	ldi	r24, 0x10	; 16
     4d6:	0e 94 35 02 	call	0x46a	; 0x46a <nrf24l01_writeregisters>
     4da:	df 91       	pop	r29
     4dc:	cf 91       	pop	r28
     4de:	08 95       	ret

000004e0 <nrf24l01_flushRXfifo>:
     4e0:	5f 98       	cbi	0x0b, 7	; 11
     4e2:	82 ee       	ldi	r24, 0xE2	; 226
     4e4:	0e 94 64 03 	call	0x6c8	; 0x6c8 <SPI_rw>
     4e8:	5f 9a       	sbi	0x0b, 7	; 11
     4ea:	08 95       	ret

000004ec <nrf24l01_flushTXfifo>:
     4ec:	5f 98       	cbi	0x0b, 7	; 11
     4ee:	81 ee       	ldi	r24, 0xE1	; 225
     4f0:	0e 94 64 03 	call	0x6c8	; 0x6c8 <SPI_rw>
     4f4:	5f 9a       	sbi	0x0b, 7	; 11
     4f6:	08 95       	ret

000004f8 <nrf24l01_setRX>:
     4f8:	80 e0       	ldi	r24, 0x00	; 0
     4fa:	0e 94 1f 02 	call	0x43e	; 0x43e <nrf24l01_readregister>
     4fe:	68 2f       	mov	r22, r24
     500:	61 60       	ori	r22, 0x01	; 1
     502:	80 e0       	ldi	r24, 0x00	; 0
     504:	0e 94 28 02 	call	0x450	; 0x450 <nrf24l01_writeregister>
     508:	80 e0       	ldi	r24, 0x00	; 0
     50a:	0e 94 1f 02 	call	0x43e	; 0x43e <nrf24l01_readregister>
     50e:	68 2f       	mov	r22, r24
     510:	62 60       	ori	r22, 0x02	; 2
     512:	80 e0       	ldi	r24, 0x00	; 0
     514:	0e 94 28 02 	call	0x450	; 0x450 <nrf24l01_writeregister>
     518:	60 e7       	ldi	r22, 0x70	; 112
     51a:	87 e0       	ldi	r24, 0x07	; 7
     51c:	0e 94 28 02 	call	0x450	; 0x450 <nrf24l01_writeregister>
     520:	80 e0       	ldi	r24, 0x00	; 0
     522:	0e 94 1f 02 	call	0x43e	; 0x43e <nrf24l01_readregister>
     526:	68 2f       	mov	r22, r24
     528:	60 61       	ori	r22, 0x10	; 16
     52a:	80 e0       	ldi	r24, 0x00	; 0
     52c:	0e 94 28 02 	call	0x450	; 0x450 <nrf24l01_writeregister>
     530:	80 e0       	ldi	r24, 0x00	; 0
     532:	0e 94 1f 02 	call	0x43e	; 0x43e <nrf24l01_readregister>
     536:	68 2f       	mov	r22, r24
     538:	60 62       	ori	r22, 0x20	; 32
     53a:	80 e0       	ldi	r24, 0x00	; 0
     53c:	0e 94 28 02 	call	0x450	; 0x450 <nrf24l01_writeregister>
     540:	0e 94 70 02 	call	0x4e0	; 0x4e0 <nrf24l01_flushRXfifo>
     544:	0e 94 76 02 	call	0x4ec	; 0x4ec <nrf24l01_flushTXfifo>
     548:	28 9a       	sbi	0x05, 0	; 5
     54a:	8b e2       	ldi	r24, 0x2B	; 43
     54c:	91 e0       	ldi	r25, 0x01	; 1
     54e:	01 97       	sbiw	r24, 0x01	; 1
     550:	f1 f7       	brne	.-4      	; 0x54e <nrf24l01_setRX+0x56>
     552:	00 c0       	rjmp	.+0      	; 0x554 <nrf24l01_setRX+0x5c>
     554:	00 00       	nop
     556:	08 95       	ret

00000558 <nrf24l01_init>:
     558:	cf 93       	push	r28
     55a:	c8 2f       	mov	r28, r24
     55c:	20 9a       	sbi	0x04, 0	; 4
     55e:	57 9a       	sbi	0x0a, 7	; 10
     560:	28 98       	cbi	0x05, 0	; 5
     562:	5f 9a       	sbi	0x0b, 7	; 11
     564:	8f e0       	ldi	r24, 0x0F	; 15
     566:	97 e2       	ldi	r25, 0x27	; 39
     568:	01 97       	sbiw	r24, 0x01	; 1
     56a:	f1 f7       	brne	.-4      	; 0x568 <nrf24l01_init+0x10>
     56c:	00 c0       	rjmp	.+0      	; 0x56e <nrf24l01_init+0x16>
     56e:	00 00       	nop
     570:	6f e0       	ldi	r22, 0x0F	; 15
     572:	80 e0       	ldi	r24, 0x00	; 0
     574:	0e 94 28 02 	call	0x450	; 0x450 <nrf24l01_writeregister>
     578:	61 e0       	ldi	r22, 0x01	; 1
     57a:	81 e0       	ldi	r24, 0x01	; 1
     57c:	0e 94 28 02 	call	0x450	; 0x450 <nrf24l01_writeregister>
     580:	61 e0       	ldi	r22, 0x01	; 1
     582:	82 e0       	ldi	r24, 0x02	; 2
     584:	0e 94 28 02 	call	0x450	; 0x450 <nrf24l01_writeregister>
     588:	63 e0       	ldi	r22, 0x03	; 3
     58a:	83 e0       	ldi	r24, 0x03	; 3
     58c:	0e 94 28 02 	call	0x450	; 0x450 <nrf24l01_writeregister>
     590:	6f ef       	ldi	r22, 0xFF	; 255
     592:	84 e0       	ldi	r24, 0x04	; 4
     594:	0e 94 28 02 	call	0x450	; 0x450 <nrf24l01_writeregister>
     598:	6c 2f       	mov	r22, r28
     59a:	85 e0       	ldi	r24, 0x05	; 5
     59c:	0e 94 28 02 	call	0x450	; 0x450 <nrf24l01_writeregister>
     5a0:	66 e2       	ldi	r22, 0x26	; 38
     5a2:	86 e0       	ldi	r24, 0x06	; 6
     5a4:	0e 94 28 02 	call	0x450	; 0x450 <nrf24l01_writeregister>
     5a8:	60 e2       	ldi	r22, 0x20	; 32
     5aa:	81 e1       	ldi	r24, 0x11	; 17
     5ac:	0e 94 28 02 	call	0x450	; 0x450 <nrf24l01_writeregister>
     5b0:	60 e0       	ldi	r22, 0x00	; 0
     5b2:	8c e1       	ldi	r24, 0x1C	; 28
     5b4:	0e 94 28 02 	call	0x450	; 0x450 <nrf24l01_writeregister>
     5b8:	0e 94 7c 02 	call	0x4f8	; 0x4f8 <nrf24l01_setRX>
     5bc:	cf 91       	pop	r28
     5be:	08 95       	ret

000005c0 <nrf24l01_setTX>:
     5c0:	28 98       	cbi	0x05, 0	; 5
     5c2:	80 e0       	ldi	r24, 0x00	; 0
     5c4:	0e 94 1f 02 	call	0x43e	; 0x43e <nrf24l01_readregister>
     5c8:	68 2f       	mov	r22, r24
     5ca:	6e 7f       	andi	r22, 0xFE	; 254
     5cc:	80 e0       	ldi	r24, 0x00	; 0
     5ce:	0e 94 28 02 	call	0x450	; 0x450 <nrf24l01_writeregister>
     5d2:	80 e0       	ldi	r24, 0x00	; 0
     5d4:	0e 94 1f 02 	call	0x43e	; 0x43e <nrf24l01_readregister>
     5d8:	68 2f       	mov	r22, r24
     5da:	62 60       	ori	r22, 0x02	; 2
     5dc:	80 e0       	ldi	r24, 0x00	; 0
     5de:	0e 94 28 02 	call	0x450	; 0x450 <nrf24l01_writeregister>
     5e2:	60 e3       	ldi	r22, 0x30	; 48
     5e4:	87 e0       	ldi	r24, 0x07	; 7
     5e6:	0e 94 28 02 	call	0x450	; 0x450 <nrf24l01_writeregister>
     5ea:	0e 94 76 02 	call	0x4ec	; 0x4ec <nrf24l01_flushTXfifo>
     5ee:	8b e2       	ldi	r24, 0x2B	; 43
     5f0:	91 e0       	ldi	r25, 0x01	; 1
     5f2:	01 97       	sbiw	r24, 0x01	; 1
     5f4:	f1 f7       	brne	.-4      	; 0x5f2 <nrf24l01_setTX+0x32>
     5f6:	00 c0       	rjmp	.+0      	; 0x5f8 <nrf24l01_setTX+0x38>
     5f8:	00 00       	nop
     5fa:	08 95       	ret

000005fc <nrf24l01_getstatus>:
     5fc:	5f 98       	cbi	0x0b, 7	; 11
     5fe:	8f ef       	ldi	r24, 0xFF	; 255
     600:	0e 94 64 03 	call	0x6c8	; 0x6c8 <SPI_rw>
     604:	5f 9a       	sbi	0x0b, 7	; 11
     606:	08 95       	ret

00000608 <nrf24l01_read>:
     608:	0f 93       	push	r16
     60a:	1f 93       	push	r17
     60c:	cf 93       	push	r28
     60e:	df 93       	push	r29
     610:	8c 01       	movw	r16, r24
     612:	5f 98       	cbi	0x0b, 7	; 11
     614:	81 e6       	ldi	r24, 0x61	; 97
     616:	0e 94 64 03 	call	0x6c8	; 0x6c8 <SPI_rw>
     61a:	e8 01       	movw	r28, r16
     61c:	00 5e       	subi	r16, 0xE0	; 224
     61e:	1f 4f       	sbci	r17, 0xFF	; 255
     620:	8f ef       	ldi	r24, 0xFF	; 255
     622:	0e 94 64 03 	call	0x6c8	; 0x6c8 <SPI_rw>
     626:	89 93       	st	Y+, r24
     628:	c0 17       	cp	r28, r16
     62a:	d1 07       	cpc	r29, r17
     62c:	c9 f7       	brne	.-14     	; 0x620 <nrf24l01_read+0x18>
     62e:	5f 9a       	sbi	0x0b, 7	; 11
     630:	60 e4       	ldi	r22, 0x40	; 64
     632:	87 e0       	ldi	r24, 0x07	; 7
     634:	0e 94 28 02 	call	0x450	; 0x450 <nrf24l01_writeregister>
     638:	df 91       	pop	r29
     63a:	cf 91       	pop	r28
     63c:	1f 91       	pop	r17
     63e:	0f 91       	pop	r16
     640:	08 95       	ret

00000642 <nrf24l01_write>:
     642:	0f 93       	push	r16
     644:	1f 93       	push	r17
     646:	cf 93       	push	r28
     648:	df 93       	push	r29
     64a:	8c 01       	movw	r16, r24
     64c:	0e 94 e0 02 	call	0x5c0	; 0x5c0 <nrf24l01_setTX>
     650:	5f 98       	cbi	0x0b, 7	; 11
     652:	80 ea       	ldi	r24, 0xA0	; 160
     654:	0e 94 64 03 	call	0x6c8	; 0x6c8 <SPI_rw>
     658:	e8 01       	movw	r28, r16
     65a:	00 5e       	subi	r16, 0xE0	; 224
     65c:	1f 4f       	sbci	r17, 0xFF	; 255
     65e:	89 91       	ld	r24, Y+
     660:	0e 94 64 03 	call	0x6c8	; 0x6c8 <SPI_rw>
     664:	c0 17       	cp	r28, r16
     666:	d1 07       	cpc	r29, r17
     668:	d1 f7       	brne	.-12     	; 0x65e <nrf24l01_write+0x1c>
     66a:	5f 9a       	sbi	0x0b, 7	; 11
     66c:	28 9a       	sbi	0x05, 0	; 5
     66e:	85 e3       	ldi	r24, 0x35	; 53
     670:	8a 95       	dec	r24
     672:	f1 f7       	brne	.-4      	; 0x670 <nrf24l01_write+0x2e>
     674:	00 00       	nop
     676:	28 98       	cbi	0x05, 0	; 5
     678:	df 91       	pop	r29
     67a:	cf 91       	pop	r28
     67c:	1f 91       	pop	r17
     67e:	0f 91       	pop	r16
     680:	08 95       	ret

00000682 <nrf24l01_irq_rx_dr>:
     682:	0e 94 fe 02 	call	0x5fc	; 0x5fc <nrf24l01_getstatus>
     686:	80 74       	andi	r24, 0x40	; 64
     688:	08 95       	ret

0000068a <nrf24l01_irq_tx_ds>:
     68a:	0e 94 fe 02 	call	0x5fc	; 0x5fc <nrf24l01_getstatus>
     68e:	80 72       	andi	r24, 0x20	; 32
     690:	08 95       	ret

00000692 <nrf24l01_irq_max_rt>:
     692:	0e 94 fe 02 	call	0x5fc	; 0x5fc <nrf24l01_getstatus>
     696:	80 71       	andi	r24, 0x10	; 16
     698:	08 95       	ret

0000069a <nrf24l01_irq_clear_rx_dr>:
}

//clears only the RX_DR interrupt
void nrf24l01_irq_clear_rx_dr()
{
	nrf24l01_writeregister(NRF24L01_REG_STATUS, NRF24L01_REG_RX_DR);
     69a:	60 e4       	ldi	r22, 0x40	; 64
     69c:	87 e0       	ldi	r24, 0x07	; 7
     69e:	0e 94 28 02 	call	0x450	; 0x450 <nrf24l01_writeregister>
     6a2:	08 95       	ret

000006a4 <nrf24l01_irq_clear_tx_ds>:
}

//clears only the TX_DS interrupt
void nrf24l01_irq_clear_tx_ds()
{
	nrf24l01_writeregister(NRF24L01_REG_STATUS, NRF24L01_REG_TX_DS);
     6a4:	60 e2       	ldi	r22, 0x20	; 32
     6a6:	87 e0       	ldi	r24, 0x07	; 7
     6a8:	0e 94 28 02 	call	0x450	; 0x450 <nrf24l01_writeregister>
     6ac:	08 95       	ret

000006ae <nrf24l01_irq_clear_max_rt>:
}

//clears only the MAX_RT interrupt
void nrf24l01_irq_clear_max_rt()
{
	nrf24l01_writeregister(NRF24L01_REG_STATUS, NRF24L01_REG_MAX_RT);
     6ae:	60 e1       	ldi	r22, 0x10	; 16
     6b0:	87 e0       	ldi	r24, 0x07	; 7
     6b2:	0e 94 28 02 	call	0x450	; 0x450 <nrf24l01_writeregister>
     6b6:	08 95       	ret

000006b8 <SPI_init>:
#include "spi.h"

// Init the SPI port
void SPI_init()
{
    SPI_DDR &= (uint8_t)~_BV(SPI_MISO);		// MISO - input
     6b8:	24 98       	cbi	0x04, 4	; 4
    SPI_DDR |= (uint8_t)_BV(SPI_MOSI);		// MOSI - output
     6ba:	23 9a       	sbi	0x04, 3	; 4
    SPI_DDR |= (uint8_t)_BV(SPI_SCK);		// SCK - output
     6bc:	25 9a       	sbi	0x04, 5	; 4
    SPI_DDR |= (uint8_t)_BV(SPI_SS);		// SS - output - must remain OUTPUT !
     6be:	22 9a       	sbi	0x04, 2	; 4

    SPCR = ((1<<SPE)|               		// SPI Enable
     6c0:	83 e5       	ldi	r24, 0x53	; 83
     6c2:	8c bd       	out	0x2c, r24	; 44
            (1<<MSTR)|              		// Master/Slave select
            (1<<SPR1)|(1<<SPR0)|    		// SPI Clock Rate -------- SLOWEST
            (0<<CPOL)|              		// Clock Polarity (0:SCK low / 1:SCK hi when idle)
            (0<<CPHA));             		// Clock Phase (0:leading / 1:trailing edge sampling)

    SPSR = (0<<SPI2X); 						// Double SPI Speed Bit ------- SLOWEST
     6c4:	1d bc       	out	0x2d, r1	; 45
     6c6:	08 95       	ret

000006c8 <SPI_rw>:
}

// SPI transfer
uint8_t SPI_rw(uint8_t data)
{
    SPDR = data;
     6c8:	8e bd       	out	0x2e, r24	; 46

    while( !(SPSR & (1<<SPIF)) );
     6ca:	0d b4       	in	r0, 0x2d	; 45
     6cc:	07 fe       	sbrs	r0, 7
     6ce:	fd cf       	rjmp	.-6      	; 0x6ca <SPI_rw+0x2>

    return SPDR;
     6d0:	8e b5       	in	r24, 0x2e	; 46
}
     6d2:	08 95       	ret

000006d4 <uart_init>:
#include "uart.h"

// init the UART registers
void uart_init(uint8_t baudrate)
{
	UBRR0 = baudrate;
     6d4:	90 e0       	ldi	r25, 0x00	; 0
     6d6:	90 93 c5 00 	sts	0x00C5, r25	; 0x8000c5 <__DATA_REGION_ORIGIN__+0x65>
     6da:	80 93 c4 00 	sts	0x00C4, r24	; 0x8000c4 <__DATA_REGION_ORIGIN__+0x64>
	UCSR0C = _BV(UCSZ01) | _BV(UCSZ00);	// character size 8 bit
     6de:	86 e0       	ldi	r24, 0x06	; 6
     6e0:	80 93 c2 00 	sts	0x00C2, r24	; 0x8000c2 <__DATA_REGION_ORIGIN__+0x62>
	UCSR0B = _BV(RXEN0) | _BV(TXEN0);	// receiver and transmitter enabled
     6e4:	88 e1       	ldi	r24, 0x18	; 24
     6e6:	80 93 c1 00 	sts	0x00C1, r24	; 0x8000c1 <__DATA_REGION_ORIGIN__+0x61>
     6ea:	08 95       	ret

000006ec <set_rtc_speed>:
			delay_builtin_ms_(POLICE_LIGHTS_STAGE_ON_8MS*8);
			setLow(LED_BLUE_PORT, LED_BLUE_PIN);
			delay_builtin_ms_(POLICE_LIGHTS_STAGE_ON_8MS*8);
		}
	}
}
     6ec:	80 93 33 01 	sts	0x0133, r24	; 0x800133 <rtc_slow_mode>
     6f0:	88 23       	and	r24, r24
     6f2:	31 f0       	breq	.+12     	; 0x700 <set_rtc_speed+0x14>
     6f4:	e1 eb       	ldi	r30, 0xB1	; 177
     6f6:	f0 e0       	ldi	r31, 0x00	; 0
     6f8:	80 81       	ld	r24, Z
     6fa:	82 60       	ori	r24, 0x02	; 2
     6fc:	80 83       	st	Z, r24
     6fe:	08 95       	ret
     700:	e1 eb       	ldi	r30, 0xB1	; 177
     702:	f0 e0       	ldi	r31, 0x00	; 0
     704:	80 81       	ld	r24, Z
     706:	8d 7f       	andi	r24, 0xFD	; 253
     708:	80 83       	st	Z, r24
     70a:	08 95       	ret

0000070c <police_off>:
     70c:	80 91 38 01 	lds	r24, 0x0138	; 0x800138 <police_lights_busy>
     710:	81 11       	cpse	r24, r1
     712:	fc cf       	rjmp	.-8      	; 0x70c <police_off>
     714:	10 92 3d 01 	sts	0x013D, r1	; 0x80013d <police_lights_count>
     718:	08 95       	ret

0000071a <police_on>:
     71a:	cf 93       	push	r28
     71c:	c8 2f       	mov	r28, r24
     71e:	0e 94 86 03 	call	0x70c	; 0x70c <police_off>
     722:	10 92 3c 01 	sts	0x013C, r1	; 0x80013c <police_lights_stage>
     726:	10 92 3a 01 	sts	0x013A, r1	; 0x80013a <police_lights_stage_on_timer+0x1>
     72a:	10 92 39 01 	sts	0x0139, r1	; 0x800139 <police_lights_stage_on_timer>
     72e:	88 e0       	ldi	r24, 0x08	; 8
     730:	80 93 3b 01 	sts	0x013B, r24	; 0x80013b <police_lights_stage_counter>
     734:	c0 93 3d 01 	sts	0x013D, r28	; 0x80013d <police_lights_count>
     738:	cf 91       	pop	r28
     73a:	08 95       	ret

0000073c <update_kl_settings_to_eeprom>:
     73c:	48 e0       	ldi	r20, 0x08	; 8
     73e:	50 e0       	ldi	r21, 0x00	; 0
     740:	61 e0       	ldi	r22, 0x01	; 1
     742:	70 e0       	ldi	r23, 0x00	; 0
     744:	89 e4       	ldi	r24, 0x49	; 73
     746:	91 e0       	ldi	r25, 0x01	; 1
     748:	0e 94 f0 12 	call	0x25e0	; 0x25e0 <eeprom_update_block>
     74c:	60 91 51 01 	lds	r22, 0x0151	; 0x800151 <kl_rx_counter>
     750:	70 91 52 01 	lds	r23, 0x0152	; 0x800152 <kl_rx_counter+0x1>
     754:	89 e0       	ldi	r24, 0x09	; 9
     756:	90 e0       	ldi	r25, 0x00	; 0
     758:	0e 94 12 13 	call	0x2624	; 0x2624 <eeprom_update_word>
     75c:	60 91 53 01 	lds	r22, 0x0153	; 0x800153 <kl_tx_counter>
     760:	70 91 54 01 	lds	r23, 0x0154	; 0x800154 <kl_tx_counter+0x1>
     764:	8b e0       	ldi	r24, 0x0B	; 11
     766:	90 e0       	ldi	r25, 0x00	; 0
     768:	0e 94 12 13 	call	0x2624	; 0x2624 <eeprom_update_word>
     76c:	6a ea       	ldi	r22, 0xAA	; 170
     76e:	80 e0       	ldi	r24, 0x00	; 0
     770:	90 e0       	ldi	r25, 0x00	; 0
     772:	0e 94 00 13 	call	0x2600	; 0x2600 <eeprom_update_byte>
     776:	08 95       	ret

00000778 <send_command>:
     778:	df 92       	push	r13
     77a:	ef 92       	push	r14
     77c:	ff 92       	push	r15
     77e:	0f 93       	push	r16
     780:	1f 93       	push	r17
     782:	cf 93       	push	r28
     784:	df 93       	push	r29
     786:	cd b7       	in	r28, 0x3d	; 61
     788:	de b7       	in	r29, 0x3e	; 62
     78a:	a4 97       	sbiw	r28, 0x24	; 36
     78c:	0f b6       	in	r0, 0x3f	; 63
     78e:	f8 94       	cli
     790:	de bf       	out	0x3e, r29	; 62
     792:	0f be       	out	0x3f, r0	; 63
     794:	cd bf       	out	0x3d, r28	; 61
     796:	8c 01       	movw	r16, r24
     798:	7b 01       	movw	r14, r22
     79a:	d4 2e       	mov	r13, r20
     79c:	40 91 53 01 	lds	r20, 0x0153	; 0x800153 <kl_tx_counter>
     7a0:	50 91 54 01 	lds	r21, 0x0154	; 0x800154 <kl_tx_counter+0x1>
     7a4:	a0 e0       	ldi	r26, 0x00	; 0
     7a6:	b0 e0       	ldi	r27, 0x00	; 0
     7a8:	dc 01       	movw	r26, r24
     7aa:	99 27       	eor	r25, r25
     7ac:	88 27       	eor	r24, r24
     7ae:	60 e0       	ldi	r22, 0x00	; 0
     7b0:	70 e0       	ldi	r23, 0x00	; 0
     7b2:	84 2b       	or	r24, r20
     7b4:	95 2b       	or	r25, r21
     7b6:	a6 2b       	or	r26, r22
     7b8:	b7 2b       	or	r27, r23
     7ba:	89 83       	std	Y+1, r24	; 0x01
     7bc:	9a 83       	std	Y+2, r25	; 0x02
     7be:	ab 83       	std	Y+3, r26	; 0x03
     7c0:	bc 83       	std	Y+4, r27	; 0x04
     7c2:	69 e4       	ldi	r22, 0x49	; 73
     7c4:	71 e0       	ldi	r23, 0x01	; 1
     7c6:	ce 01       	movw	r24, r28
     7c8:	01 96       	adiw	r24, 0x01	; 1
     7ca:	0e 94 d4 00 	call	0x1a8	; 0x1a8 <keeloq_encrypt>
     7ce:	89 81       	ldd	r24, Y+1	; 0x01
     7d0:	9a 81       	ldd	r25, Y+2	; 0x02
     7d2:	ab 81       	ldd	r26, Y+3	; 0x03
     7d4:	bc 81       	ldd	r27, Y+4	; 0x04
     7d6:	8d 83       	std	Y+5, r24	; 0x05
     7d8:	9e 83       	std	Y+6, r25	; 0x06
     7da:	af 83       	std	Y+7, r26	; 0x07
     7dc:	b8 87       	std	Y+8, r27	; 0x08
     7de:	1a 87       	std	Y+10, r17	; 0x0a
     7e0:	09 87       	std	Y+9, r16	; 0x09
     7e2:	4d 2d       	mov	r20, r13
     7e4:	50 e0       	ldi	r21, 0x00	; 0
     7e6:	b7 01       	movw	r22, r14
     7e8:	ce 01       	movw	r24, r28
     7ea:	0b 96       	adiw	r24, 0x0b	; 11
     7ec:	0e 94 02 12 	call	0x2404	; 0x2404 <memcpy>
     7f0:	ce 01       	movw	r24, r28
     7f2:	05 96       	adiw	r24, 0x05	; 5
     7f4:	0e 94 21 03 	call	0x642	; 0x642 <nrf24l01_write>
     7f8:	06 c0       	rjmp	.+12     	; 0x806 <send_command+0x8e>
     7fa:	8f ec       	ldi	r24, 0xCF	; 207
     7fc:	97 e0       	ldi	r25, 0x07	; 7
     7fe:	01 97       	sbiw	r24, 0x01	; 1
     800:	f1 f7       	brne	.-4      	; 0x7fe <send_command+0x86>
     802:	00 c0       	rjmp	.+0      	; 0x804 <send_command+0x8c>
     804:	00 00       	nop
     806:	0e 94 49 03 	call	0x692	; 0x692 <nrf24l01_irq_max_rt>
     80a:	81 11       	cpse	r24, r1
     80c:	04 c0       	rjmp	.+8      	; 0x816 <send_command+0x9e>
     80e:	0e 94 45 03 	call	0x68a	; 0x68a <nrf24l01_irq_tx_ds>
     812:	88 23       	and	r24, r24
     814:	91 f3       	breq	.-28     	; 0x7fa <send_command+0x82>
     816:	0e 94 49 03 	call	0x692	; 0x692 <nrf24l01_irq_max_rt>
     81a:	88 23       	and	r24, r24
     81c:	19 f0       	breq	.+6      	; 0x824 <send_command+0xac>
     81e:	0e 94 57 03 	call	0x6ae	; 0x6ae <nrf24l01_irq_clear_max_rt>
     822:	0d c0       	rjmp	.+26     	; 0x83e <send_command+0xc6>
     824:	80 91 53 01 	lds	r24, 0x0153	; 0x800153 <kl_tx_counter>
     828:	90 91 54 01 	lds	r25, 0x0154	; 0x800154 <kl_tx_counter+0x1>
     82c:	01 96       	adiw	r24, 0x01	; 1
     82e:	90 93 54 01 	sts	0x0154, r25	; 0x800154 <kl_tx_counter+0x1>
     832:	80 93 53 01 	sts	0x0153, r24	; 0x800153 <kl_tx_counter>
     836:	0e 94 9e 03 	call	0x73c	; 0x73c <update_kl_settings_to_eeprom>
     83a:	0e 94 52 03 	call	0x6a4	; 0x6a4 <nrf24l01_irq_clear_tx_ds>
     83e:	0e 94 7c 02 	call	0x4f8	; 0x4f8 <nrf24l01_setRX>
     842:	a4 96       	adiw	r28, 0x24	; 36
     844:	0f b6       	in	r0, 0x3f	; 63
     846:	f8 94       	cli
     848:	de bf       	out	0x3e, r29	; 62
     84a:	0f be       	out	0x3f, r0	; 63
     84c:	cd bf       	out	0x3d, r28	; 61
     84e:	df 91       	pop	r29
     850:	cf 91       	pop	r28
     852:	1f 91       	pop	r17
     854:	0f 91       	pop	r16
     856:	ff 90       	pop	r15
     858:	ef 90       	pop	r14
     85a:	df 90       	pop	r13
     85c:	08 95       	ret

0000085e <misc_hw_init>:
     85e:	21 98       	cbi	0x04, 1	; 4
     860:	29 9a       	sbi	0x05, 1	; 5
     862:	eb e6       	ldi	r30, 0x6B	; 107
     864:	f0 e0       	ldi	r31, 0x00	; 0
     866:	80 81       	ld	r24, Z
     868:	82 60       	ori	r24, 0x02	; 2
     86a:	80 83       	st	Z, r24
     86c:	e8 e6       	ldi	r30, 0x68	; 104
     86e:	f0 e0       	ldi	r31, 0x00	; 0
     870:	80 81       	ld	r24, Z
     872:	81 60       	ori	r24, 0x01	; 1
     874:	80 83       	st	Z, r24
     876:	3b 98       	cbi	0x07, 3	; 7
     878:	43 9a       	sbi	0x08, 3	; 8
     87a:	38 9a       	sbi	0x07, 0	; 7
     87c:	40 98       	cbi	0x08, 0	; 8
     87e:	55 9a       	sbi	0x0a, 5	; 10
     880:	5d 98       	cbi	0x0b, 5	; 11
     882:	56 9a       	sbi	0x0a, 6	; 10
     884:	5e 98       	cbi	0x0b, 6	; 11
     886:	3d 98       	cbi	0x07, 5	; 7
     888:	ee e7       	ldi	r30, 0x7E	; 126
     88a:	f0 e0       	ldi	r31, 0x00	; 0
     88c:	80 81       	ld	r24, Z
     88e:	80 62       	ori	r24, 0x20	; 32
     890:	80 83       	st	Z, r24
     892:	3c 98       	cbi	0x07, 4	; 7
     894:	80 81       	ld	r24, Z
     896:	80 62       	ori	r24, 0x20	; 32
     898:	80 83       	st	Z, r24
     89a:	3e 98       	cbi	0x07, 6	; 7
     89c:	80 81       	ld	r24, Z
     89e:	80 61       	ori	r24, 0x10	; 16
     8a0:	80 83       	st	Z, r24
     8a2:	3e 98       	cbi	0x07, 6	; 7
     8a4:	3a 98       	cbi	0x07, 2	; 7
     8a6:	80 81       	ld	r24, Z
     8a8:	84 60       	ori	r24, 0x04	; 4
     8aa:	80 83       	st	Z, r24
     8ac:	08 95       	ret

000008ae <delay_builtin_ms_>:
     8ae:	00 97       	sbiw	r24, 0x00	; 0
     8b0:	41 f0       	breq	.+16     	; 0x8c2 <delay_builtin_ms_+0x14>
     8b2:	ef ec       	ldi	r30, 0xCF	; 207
     8b4:	f7 e0       	ldi	r31, 0x07	; 7
     8b6:	31 97       	sbiw	r30, 0x01	; 1
     8b8:	f1 f7       	brne	.-4      	; 0x8b6 <delay_builtin_ms_+0x8>
     8ba:	00 c0       	rjmp	.+0      	; 0x8bc <delay_builtin_ms_+0xe>
     8bc:	00 00       	nop
     8be:	01 97       	sbiw	r24, 0x01	; 1
     8c0:	c1 f7       	brne	.-16     	; 0x8b2 <delay_builtin_ms_+0x4>
     8c2:	08 95       	ret

000008c4 <speed_camera>:
     8c4:	5d 9a       	sbi	0x0b, 5	; 11
     8c6:	8c e3       	ldi	r24, 0x3C	; 60
     8c8:	90 e0       	ldi	r25, 0x00	; 0
     8ca:	0e 94 57 04 	call	0x8ae	; 0x8ae <delay_builtin_ms_>
     8ce:	5d 98       	cbi	0x0b, 5	; 11
     8d0:	8c e3       	ldi	r24, 0x3C	; 60
     8d2:	90 e0       	ldi	r25, 0x00	; 0
     8d4:	0e 94 57 04 	call	0x8ae	; 0x8ae <delay_builtin_ms_>
     8d8:	5d 9a       	sbi	0x0b, 5	; 11
     8da:	8c e3       	ldi	r24, 0x3C	; 60
     8dc:	90 e0       	ldi	r25, 0x00	; 0
     8de:	0e 94 57 04 	call	0x8ae	; 0x8ae <delay_builtin_ms_>
     8e2:	5d 98       	cbi	0x0b, 5	; 11
     8e4:	8c e3       	ldi	r24, 0x3C	; 60
     8e6:	90 e0       	ldi	r25, 0x00	; 0
     8e8:	0e 94 57 04 	call	0x8ae	; 0x8ae <delay_builtin_ms_>
     8ec:	84 ef       	ldi	r24, 0xF4	; 244
     8ee:	91 e0       	ldi	r25, 0x01	; 1
     8f0:	0e 94 57 04 	call	0x8ae	; 0x8ae <delay_builtin_ms_>
     8f4:	5d 9a       	sbi	0x0b, 5	; 11
     8f6:	8c e3       	ldi	r24, 0x3C	; 60
     8f8:	90 e0       	ldi	r25, 0x00	; 0
     8fa:	0e 94 57 04 	call	0x8ae	; 0x8ae <delay_builtin_ms_>
     8fe:	5d 98       	cbi	0x0b, 5	; 11
     900:	8c e3       	ldi	r24, 0x3C	; 60
     902:	90 e0       	ldi	r25, 0x00	; 0
     904:	0e 94 57 04 	call	0x8ae	; 0x8ae <delay_builtin_ms_>
     908:	5d 9a       	sbi	0x0b, 5	; 11
     90a:	8c e3       	ldi	r24, 0x3C	; 60
     90c:	90 e0       	ldi	r25, 0x00	; 0
     90e:	0e 94 57 04 	call	0x8ae	; 0x8ae <delay_builtin_ms_>
     912:	5d 98       	cbi	0x0b, 5	; 11
     914:	8c e3       	ldi	r24, 0x3C	; 60
     916:	90 e0       	ldi	r25, 0x00	; 0
     918:	0e 94 57 04 	call	0x8ae	; 0x8ae <delay_builtin_ms_>
     91c:	08 95       	ret

0000091e <__vector_16>:
//##############################
// Interrupt: TIMER0 OVERFLOW //
//##############################
// set to overflow at 8.192ms milliseconds
ISR(TIMER0_OVF_vect, ISR_NOBLOCK)
{
     91e:	78 94       	sei
     920:	1f 92       	push	r1
     922:	0f 92       	push	r0
     924:	0f b6       	in	r0, 0x3f	; 63
     926:	0f 92       	push	r0
     928:	11 24       	eor	r1, r1
     92a:	8f 93       	push	r24
     92c:	9f 93       	push	r25
	police_lights_busy = 1; // for sync
     92e:	81 e0       	ldi	r24, 0x01	; 1
     930:	80 93 38 01 	sts	0x0138, r24	; 0x800138 <police_lights_busy>

	// blinker ON?
	if(police_lights_count) {
     934:	80 91 3d 01 	lds	r24, 0x013D	; 0x80013d <police_lights_count>
     938:	88 23       	and	r24, r24
     93a:	09 f4       	brne	.+2      	; 0x93e <__vector_16+0x20>
     93c:	49 c0       	rjmp	.+146    	; 0x9d0 <__vector_16+0xb2>

		// time to toggle the pin?
		// nope
		if(police_lights_stage_on_timer) {
     93e:	80 91 39 01 	lds	r24, 0x0139	; 0x800139 <police_lights_stage_on_timer>
     942:	90 91 3a 01 	lds	r25, 0x013A	; 0x80013a <police_lights_stage_on_timer+0x1>
     946:	89 2b       	or	r24, r25
     948:	51 f0       	breq	.+20     	; 0x95e <__vector_16+0x40>
			police_lights_stage_on_timer--;
     94a:	80 91 39 01 	lds	r24, 0x0139	; 0x800139 <police_lights_stage_on_timer>
     94e:	90 91 3a 01 	lds	r25, 0x013A	; 0x80013a <police_lights_stage_on_timer+0x1>
     952:	01 97       	sbiw	r24, 0x01	; 1
     954:	90 93 3a 01 	sts	0x013A, r25	; 0x80013a <police_lights_stage_on_timer+0x1>
     958:	80 93 39 01 	sts	0x0139, r24	; 0x800139 <police_lights_stage_on_timer>
     95c:	39 c0       	rjmp	.+114    	; 0x9d0 <__vector_16+0xb2>
		}
		// yep
		else {
			// time to change the stage?
			// nope
			if(police_lights_stage_counter) {
     95e:	80 91 3b 01 	lds	r24, 0x013B	; 0x80013b <police_lights_stage_counter>
     962:	88 23       	and	r24, r24
     964:	31 f0       	breq	.+12     	; 0x972 <__vector_16+0x54>
				police_lights_stage_counter--;
     966:	80 91 3b 01 	lds	r24, 0x013B	; 0x80013b <police_lights_stage_counter>
     96a:	81 50       	subi	r24, 0x01	; 1
     96c:	80 93 3b 01 	sts	0x013B, r24	; 0x80013b <police_lights_stage_counter>
     970:	13 c0       	rjmp	.+38     	; 0x998 <__vector_16+0x7a>
			}
			// yep
			else {
				// completed one full blink (both stages blinked at least once)
				if(police_lights_stage) {
     972:	80 91 3c 01 	lds	r24, 0x013C	; 0x80013c <police_lights_stage>
     976:	88 23       	and	r24, r24
     978:	29 f0       	breq	.+10     	; 0x984 <__vector_16+0x66>
					police_lights_count--; // full sequence (RED+BLUE) completed
     97a:	80 91 3d 01 	lds	r24, 0x013D	; 0x80013d <police_lights_count>
     97e:	81 50       	subi	r24, 0x01	; 1
     980:	80 93 3d 01 	sts	0x013D, r24	; 0x80013d <police_lights_count>
				}

				police_lights_stage = !police_lights_stage; // change it
     984:	90 91 3c 01 	lds	r25, 0x013C	; 0x80013c <police_lights_stage>
     988:	81 e0       	ldi	r24, 0x01	; 1
     98a:	91 11       	cpse	r25, r1
     98c:	80 e0       	ldi	r24, 0x00	; 0
     98e:	80 93 3c 01 	sts	0x013C, r24	; 0x80013c <police_lights_stage>
				police_lights_stage_counter = POLICE_LIGHTS_STAGE_COUNT*2; // reload counter
     992:	88 e0       	ldi	r24, 0x08	; 8
     994:	80 93 3b 01 	sts	0x013B, r24	; 0x80013b <police_lights_stage_counter>
			}

			// toggle the pin according to the current stage, if there is more to do
			if(police_lights_count) {
     998:	80 91 3d 01 	lds	r24, 0x013D	; 0x80013d <police_lights_count>
     99c:	88 23       	and	r24, r24
     99e:	b1 f0       	breq	.+44     	; 0x9cc <__vector_16+0xae>
				if(police_lights_stage) {
     9a0:	80 91 3c 01 	lds	r24, 0x013C	; 0x80013c <police_lights_stage>
     9a4:	88 23       	and	r24, r24
     9a6:	31 f0       	breq	.+12     	; 0x9b4 <__vector_16+0x96>
					setLow(LED_BLUE_PORT, LED_BLUE_PIN); // keep this one off
     9a8:	5e 98       	cbi	0x0b, 6	; 11
					togglePin(LED_RED_PORT, LED_RED_PIN); // blink this one
     9aa:	9b b1       	in	r25, 0x0b	; 11
     9ac:	80 e2       	ldi	r24, 0x20	; 32
     9ae:	89 27       	eor	r24, r25
     9b0:	8b b9       	out	0x0b, r24	; 11
     9b2:	05 c0       	rjmp	.+10     	; 0x9be <__vector_16+0xa0>
				}
				else {
					setLow(LED_RED_PORT, LED_RED_PIN); // keep this one off
     9b4:	5d 98       	cbi	0x0b, 5	; 11
					togglePin(LED_BLUE_PORT, LED_BLUE_PIN); // blink this one
     9b6:	9b b1       	in	r25, 0x0b	; 11
     9b8:	80 e4       	ldi	r24, 0x40	; 64
     9ba:	89 27       	eor	r24, r25
     9bc:	8b b9       	out	0x0b, r24	; 11
				}

				police_lights_stage_on_timer = POLICE_LIGHTS_STAGE_ON_8MS; // reload timer
     9be:	85 e0       	ldi	r24, 0x05	; 5
     9c0:	90 e0       	ldi	r25, 0x00	; 0
     9c2:	90 93 3a 01 	sts	0x013A, r25	; 0x80013a <police_lights_stage_on_timer+0x1>
     9c6:	80 93 39 01 	sts	0x0139, r24	; 0x800139 <police_lights_stage_on_timer>
     9ca:	02 c0       	rjmp	.+4      	; 0x9d0 <__vector_16+0xb2>
			}
			// this was the last pass? - turn them off finally
			else {
				setLow(LED_RED_PORT, LED_RED_PIN);
     9cc:	5d 98       	cbi	0x0b, 5	; 11
				setLow(LED_BLUE_PORT, LED_BLUE_PIN);
     9ce:	5e 98       	cbi	0x0b, 6	; 11
			}
		}

	}

	police_lights_busy = 0; // for sync
     9d0:	10 92 38 01 	sts	0x0138, r1	; 0x800138 <police_lights_busy>
}
     9d4:	9f 91       	pop	r25
     9d6:	8f 91       	pop	r24
     9d8:	0f 90       	pop	r0
     9da:	0f be       	out	0x3f, r0	; 63
     9dc:	0f 90       	pop	r0
     9de:	1f 90       	pop	r1
     9e0:	18 95       	reti

000009e2 <__vector_3>:

// Interrupt: pin change interrupt
// This one is connected to nRF24L01 IRQ pin only
ISR(PCINT0_vect, ISR_NOBLOCK) {
     9e2:	78 94       	sei
     9e4:	1f 92       	push	r1
     9e6:	0f 92       	push	r0
     9e8:	0f b6       	in	r0, 0x3f	; 63
     9ea:	0f 92       	push	r0
     9ec:	11 24       	eor	r1, r1
     9ee:	8f 93       	push	r24
     9f0:	ef 93       	push	r30
     9f2:	ff 93       	push	r31
	sleep_disable();
     9f4:	83 b7       	in	r24, 0x33	; 51
     9f6:	8e 7f       	andi	r24, 0xFE	; 254
     9f8:	83 bf       	out	0x33, r24	; 51

	PCICR &= ~_BV(PCIE0); 								// ..disable interrupts for the entire section
     9fa:	e8 e6       	ldi	r30, 0x68	; 104
     9fc:	f0 e0       	ldi	r31, 0x00	; 0
     9fe:	80 81       	ld	r24, Z
     a00:	8e 7f       	andi	r24, 0xFE	; 254
     a02:	80 83       	st	Z, r24

	// event is only on LOW pulse
	if( !(nrf24l01_IRQ_PINREG & _BV(nrf24l01_IRQ_PIN)) ) {
     a04:	19 99       	sbic	0x03, 1	; 3
     a06:	03 c0       	rjmp	.+6      	; 0xa0e <__vector_3+0x2c>
		radio_event = 1;
     a08:	81 e0       	ldi	r24, 0x01	; 1
     a0a:	80 93 45 01 	sts	0x0145, r24	; 0x800145 <radio_event>
	}

	PCICR |= _BV(PCIE0); 								// ..re-enable interrupts for the entire section
     a0e:	e8 e6       	ldi	r30, 0x68	; 104
     a10:	f0 e0       	ldi	r31, 0x00	; 0
     a12:	80 81       	ld	r24, Z
     a14:	81 60       	ori	r24, 0x01	; 1
     a16:	80 83       	st	Z, r24
}
     a18:	ff 91       	pop	r31
     a1a:	ef 91       	pop	r30
     a1c:	8f 91       	pop	r24
     a1e:	0f 90       	pop	r0
     a20:	0f be       	out	0x3f, r0	; 63
     a22:	0f 90       	pop	r0
     a24:	1f 90       	pop	r1
     a26:	18 95       	reti

00000a28 <__vector_4>:

// Interrupt: pin change interrupt
// This one is connected to Li+ battery charger CHARGE indicator
ISR(PCINT1_vect, ISR_NOBLOCK) {
     a28:	78 94       	sei
     a2a:	1f 92       	push	r1
     a2c:	0f 92       	push	r0
     a2e:	0f b6       	in	r0, 0x3f	; 63
     a30:	0f 92       	push	r0
     a32:	11 24       	eor	r1, r1
     a34:	8f 93       	push	r24
     a36:	ef 93       	push	r30
     a38:	ff 93       	push	r31
	sleep_disable();
     a3a:	83 b7       	in	r24, 0x33	; 51
     a3c:	8e 7f       	andi	r24, 0xFE	; 254
     a3e:	83 bf       	out	0x33, r24	; 51

	PCICR &= ~_BV(PCIE1); 								// ..disable interrupts for the entire section
     a40:	e8 e6       	ldi	r30, 0x68	; 104
     a42:	f0 e0       	ldi	r31, 0x00	; 0
     a44:	80 81       	ld	r24, Z
     a46:	8d 7f       	andi	r24, 0xFD	; 253
     a48:	80 83       	st	Z, r24

	charge_event = 1;
     a4a:	81 e0       	ldi	r24, 0x01	; 1
     a4c:	80 93 46 01 	sts	0x0146, r24	; 0x800146 <charge_event>

	PCICR |= _BV(PCIE1); 								// ..re-enable interrupts for the entire section
     a50:	80 81       	ld	r24, Z
     a52:	82 60       	ori	r24, 0x02	; 2
     a54:	80 83       	st	Z, r24
}
     a56:	ff 91       	pop	r31
     a58:	ef 91       	pop	r30
     a5a:	8f 91       	pop	r24
     a5c:	0f 90       	pop	r0
     a5e:	0f be       	out	0x3f, r0	; 63
     a60:	0f 90       	pop	r0
     a62:	1f 90       	pop	r1
     a64:	18 95       	reti

00000a66 <isleapyear>:

// calculate if given year is leap year
uint8_t isleapyear(uint16_t y)
{
     a66:	ac 01       	movw	r20, r24
	return ( ( !(y % 4) && (y % 100) ) || !(y % 400) );
     a68:	83 70       	andi	r24, 0x03	; 3
     a6a:	99 27       	eor	r25, r25
     a6c:	89 2b       	or	r24, r25
     a6e:	a1 f4       	brne	.+40     	; 0xa98 <isleapyear+0x32>
     a70:	9a 01       	movw	r18, r20
     a72:	36 95       	lsr	r19
     a74:	27 95       	ror	r18
     a76:	36 95       	lsr	r19
     a78:	27 95       	ror	r18
     a7a:	ab e7       	ldi	r26, 0x7B	; 123
     a7c:	b4 e1       	ldi	r27, 0x14	; 20
     a7e:	0e 94 13 10 	call	0x2026	; 0x2026 <__umulhisi3>
     a82:	96 95       	lsr	r25
     a84:	87 95       	ror	r24
     a86:	64 e6       	ldi	r22, 0x64	; 100
     a88:	68 9f       	mul	r22, r24
     a8a:	90 01       	movw	r18, r0
     a8c:	69 9f       	mul	r22, r25
     a8e:	30 0d       	add	r19, r0
     a90:	11 24       	eor	r1, r1
     a92:	42 17       	cp	r20, r18
     a94:	53 07       	cpc	r21, r19
     a96:	d1 f4       	brne	.+52     	; 0xacc <isleapyear+0x66>
     a98:	9a 01       	movw	r18, r20
     a9a:	32 95       	swap	r19
     a9c:	22 95       	swap	r18
     a9e:	2f 70       	andi	r18, 0x0F	; 15
     aa0:	23 27       	eor	r18, r19
     aa2:	3f 70       	andi	r19, 0x0F	; 15
     aa4:	23 27       	eor	r18, r19
     aa6:	ae e3       	ldi	r26, 0x3E	; 62
     aa8:	ba e0       	ldi	r27, 0x0A	; 10
     aaa:	0e 94 13 10 	call	0x2026	; 0x2026 <__umulhisi3>
     aae:	60 e9       	ldi	r22, 0x90	; 144
     ab0:	71 e0       	ldi	r23, 0x01	; 1
     ab2:	86 9f       	mul	r24, r22
     ab4:	90 01       	movw	r18, r0
     ab6:	87 9f       	mul	r24, r23
     ab8:	30 0d       	add	r19, r0
     aba:	96 9f       	mul	r25, r22
     abc:	30 0d       	add	r19, r0
     abe:	11 24       	eor	r1, r1
     ac0:	81 e0       	ldi	r24, 0x01	; 1
     ac2:	42 17       	cp	r20, r18
     ac4:	53 07       	cpc	r21, r19
     ac6:	19 f0       	breq	.+6      	; 0xace <isleapyear+0x68>
     ac8:	80 e0       	ldi	r24, 0x00	; 0
     aca:	08 95       	ret
     acc:	81 e0       	ldi	r24, 0x01	; 1
}
     ace:	08 95       	ret

00000ad0 <__vector_9>:
//##############################
// Interrupt: TIMER2 OVERFLOW //
//##############################
// This interrupt can happen on every 1s or every 8s
ISR(TIMER2_OVF_vect, ISR_NOBLOCK)
{
     ad0:	78 94       	sei
     ad2:	1f 92       	push	r1
     ad4:	0f 92       	push	r0
     ad6:	0f b6       	in	r0, 0x3f	; 63
     ad8:	0f 92       	push	r0
     ada:	11 24       	eor	r1, r1
     adc:	af 92       	push	r10
     ade:	bf 92       	push	r11
     ae0:	cf 92       	push	r12
     ae2:	df 92       	push	r13
     ae4:	ef 92       	push	r14
     ae6:	ff 92       	push	r15
     ae8:	0f 93       	push	r16
     aea:	1f 93       	push	r17
     aec:	2f 93       	push	r18
     aee:	3f 93       	push	r19
     af0:	4f 93       	push	r20
     af2:	5f 93       	push	r21
     af4:	6f 93       	push	r22
     af6:	7f 93       	push	r23
     af8:	8f 93       	push	r24
     afa:	9f 93       	push	r25
     afc:	af 93       	push	r26
     afe:	bf 93       	push	r27
     b00:	ef 93       	push	r30
     b02:	ff 93       	push	r31
	rtc_busy = 1; // for sync
     b04:	81 e0       	ldi	r24, 0x01	; 1
     b06:	80 93 2a 01 	sts	0x012A, r24	; 0x80012a <__data_end>

	rtc_event = 1;
     b0a:	80 93 44 01 	sts	0x0144, r24	; 0x800144 <rtc_event>

	uint8_t sec_step = 1;

	// RTC is normal, 1 second interval
	if(!rtc_slow_mode) {
     b0e:	80 91 33 01 	lds	r24, 0x0133	; 0x800133 <rtc_slow_mode>
     b12:	88 23       	and	r24, r24
     b14:	11 f0       	breq	.+4      	; 0xb1a <__vector_9+0x4a>

		// TODO: do something every second?
	}
	// RTC advances on each 8 seconds
	else {
		sec_step = 8;
     b16:	e8 e0       	ldi	r30, 0x08	; 8
     b18:	01 c0       	rjmp	.+2      	; 0xb1c <__vector_9+0x4c>
{
	rtc_busy = 1; // for sync

	rtc_event = 1;

	uint8_t sec_step = 1;
     b1a:	e1 e0       	ldi	r30, 0x01	; 1
		sec_step = 8;

		// TODO: do something every 8 seconds?
	}

	RTC[TIME_S] += sec_step;
     b1c:	a0 e0       	ldi	r26, 0x00	; 0
     b1e:	b1 e0       	ldi	r27, 0x01	; 1
     b20:	15 96       	adiw	r26, 0x05	; 5
     b22:	8c 91       	ld	r24, X
     b24:	15 97       	sbiw	r26, 0x05	; 5
     b26:	8e 0f       	add	r24, r30
     b28:	15 96       	adiw	r26, 0x05	; 5
     b2a:	8c 93       	st	X, r24
	seconds_counter += sec_step; // seconds ticker, for global use
     b2c:	a0 90 2b 01 	lds	r10, 0x012B	; 0x80012b <seconds_counter>
     b30:	b0 90 2c 01 	lds	r11, 0x012C	; 0x80012c <seconds_counter+0x1>
     b34:	c0 90 2d 01 	lds	r12, 0x012D	; 0x80012d <seconds_counter+0x2>
     b38:	d0 90 2e 01 	lds	r13, 0x012E	; 0x80012e <seconds_counter+0x3>
     b3c:	e0 90 2f 01 	lds	r14, 0x012F	; 0x80012f <seconds_counter+0x4>
     b40:	f0 90 30 01 	lds	r15, 0x0130	; 0x800130 <seconds_counter+0x5>
     b44:	00 91 31 01 	lds	r16, 0x0131	; 0x800131 <seconds_counter+0x6>
     b48:	10 91 32 01 	lds	r17, 0x0132	; 0x800132 <seconds_counter+0x7>
     b4c:	2e 2f       	mov	r18, r30
     b4e:	30 e0       	ldi	r19, 0x00	; 0
     b50:	40 e0       	ldi	r20, 0x00	; 0
     b52:	50 e0       	ldi	r21, 0x00	; 0
     b54:	60 e0       	ldi	r22, 0x00	; 0
     b56:	70 e0       	ldi	r23, 0x00	; 0
     b58:	80 e0       	ldi	r24, 0x00	; 0
     b5a:	90 e0       	ldi	r25, 0x00	; 0
     b5c:	0e 94 0a 11 	call	0x2214	; 0x2214 <__adddi3>
     b60:	20 93 2b 01 	sts	0x012B, r18	; 0x80012b <seconds_counter>
     b64:	30 93 2c 01 	sts	0x012C, r19	; 0x80012c <seconds_counter+0x1>
     b68:	40 93 2d 01 	sts	0x012D, r20	; 0x80012d <seconds_counter+0x2>
     b6c:	50 93 2e 01 	sts	0x012E, r21	; 0x80012e <seconds_counter+0x3>
     b70:	60 93 2f 01 	sts	0x012F, r22	; 0x80012f <seconds_counter+0x4>
     b74:	70 93 30 01 	sts	0x0130, r23	; 0x800130 <seconds_counter+0x5>
     b78:	80 93 31 01 	sts	0x0131, r24	; 0x800131 <seconds_counter+0x6>
     b7c:	90 93 32 01 	sts	0x0132, r25	; 0x800132 <seconds_counter+0x7>

	// measure charge time
	if( !(BATT_CHRG_PINREG & _BV(BATT_CHRG_PIN)) ) {
     b80:	33 99       	sbic	0x06, 3	; 6
     b82:	14 c0       	rjmp	.+40     	; 0xbac <__vector_9+0xdc>
		charging_time_sec += sec_step;
     b84:	80 91 40 01 	lds	r24, 0x0140	; 0x800140 <charging_time_sec>
     b88:	90 91 41 01 	lds	r25, 0x0141	; 0x800141 <charging_time_sec+0x1>
     b8c:	a0 91 42 01 	lds	r26, 0x0142	; 0x800142 <charging_time_sec+0x2>
     b90:	b0 91 43 01 	lds	r27, 0x0143	; 0x800143 <charging_time_sec+0x3>
     b94:	8e 0f       	add	r24, r30
     b96:	91 1d       	adc	r25, r1
     b98:	a1 1d       	adc	r26, r1
     b9a:	b1 1d       	adc	r27, r1
     b9c:	80 93 40 01 	sts	0x0140, r24	; 0x800140 <charging_time_sec>
     ba0:	90 93 41 01 	sts	0x0141, r25	; 0x800141 <charging_time_sec+0x1>
     ba4:	a0 93 42 01 	sts	0x0142, r26	; 0x800142 <charging_time_sec+0x2>
     ba8:	b0 93 43 01 	sts	0x0143, r27	; 0x800143 <charging_time_sec+0x3>
	}

	// a minute!
	if(RTC[TIME_S] >= 60)
     bac:	80 91 05 01 	lds	r24, 0x0105	; 0x800105 <RTC+0x5>
     bb0:	8c 33       	cpi	r24, 0x3C	; 60
     bb2:	80 f1       	brcs	.+96     	; 0xc14 <__vector_9+0x144>
	{
		// correction if in slow mode
		if(rtc_slow_mode) {
     bb4:	80 91 33 01 	lds	r24, 0x0133	; 0x800133 <rtc_slow_mode>
     bb8:	88 23       	and	r24, r24
     bba:	31 f0       	breq	.+12     	; 0xbc8 <__vector_9+0xf8>
			RTC[TIME_S] = RTC[TIME_S] - 60; // keep remainder!
     bbc:	e0 e0       	ldi	r30, 0x00	; 0
     bbe:	f1 e0       	ldi	r31, 0x01	; 1
     bc0:	85 81       	ldd	r24, Z+5	; 0x05
     bc2:	8c 53       	subi	r24, 0x3C	; 60
     bc4:	85 83       	std	Z+5, r24	; 0x05
     bc6:	02 c0       	rjmp	.+4      	; 0xbcc <__vector_9+0xfc>
		}
		// normal
		else {
			RTC[TIME_S] = 0;
     bc8:	10 92 05 01 	sts	0x0105, r1	; 0x800105 <RTC+0x5>
		}

		RTC[TIME_M]++;
     bcc:	e0 e0       	ldi	r30, 0x00	; 0
     bce:	f1 e0       	ldi	r31, 0x01	; 1
     bd0:	84 81       	ldd	r24, Z+4	; 0x04
     bd2:	8f 5f       	subi	r24, 0xFF	; 255
     bd4:	84 83       	std	Z+4, r24	; 0x04

		// TODO: do something every minute?
		if(telemetry_timer_min) telemetry_timer_min--;
     bd6:	80 91 34 01 	lds	r24, 0x0134	; 0x800134 <telemetry_timer_min>
     bda:	90 91 35 01 	lds	r25, 0x0135	; 0x800135 <telemetry_timer_min+0x1>
     bde:	a0 91 36 01 	lds	r26, 0x0136	; 0x800136 <telemetry_timer_min+0x2>
     be2:	b0 91 37 01 	lds	r27, 0x0137	; 0x800137 <telemetry_timer_min+0x3>
     be6:	89 2b       	or	r24, r25
     be8:	8a 2b       	or	r24, r26
     bea:	8b 2b       	or	r24, r27
     bec:	99 f0       	breq	.+38     	; 0xc14 <__vector_9+0x144>
     bee:	80 91 34 01 	lds	r24, 0x0134	; 0x800134 <telemetry_timer_min>
     bf2:	90 91 35 01 	lds	r25, 0x0135	; 0x800135 <telemetry_timer_min+0x1>
     bf6:	a0 91 36 01 	lds	r26, 0x0136	; 0x800136 <telemetry_timer_min+0x2>
     bfa:	b0 91 37 01 	lds	r27, 0x0137	; 0x800137 <telemetry_timer_min+0x3>
     bfe:	01 97       	sbiw	r24, 0x01	; 1
     c00:	a1 09       	sbc	r26, r1
     c02:	b1 09       	sbc	r27, r1
     c04:	80 93 34 01 	sts	0x0134, r24	; 0x800134 <telemetry_timer_min>
     c08:	90 93 35 01 	sts	0x0135, r25	; 0x800135 <telemetry_timer_min+0x1>
     c0c:	a0 93 36 01 	sts	0x0136, r26	; 0x800136 <telemetry_timer_min+0x2>
     c10:	b0 93 37 01 	sts	0x0137, r27	; 0x800137 <telemetry_timer_min+0x3>

	} // if(RTC[TIME_S] >= 60)

	// an hour...
	if(RTC[TIME_M] >= 60)
     c14:	80 91 04 01 	lds	r24, 0x0104	; 0x800104 <RTC+0x4>
     c18:	8c 33       	cpi	r24, 0x3C	; 60
     c1a:	30 f0       	brcs	.+12     	; 0xc28 <__vector_9+0x158>
	{
		RTC[TIME_M] = 0;
     c1c:	e0 e0       	ldi	r30, 0x00	; 0
     c1e:	f1 e0       	ldi	r31, 0x01	; 1
     c20:	14 82       	std	Z+4, r1	; 0x04
		RTC[TIME_H]++;
     c22:	83 81       	ldd	r24, Z+3	; 0x03
     c24:	8f 5f       	subi	r24, 0xFF	; 255
     c26:	83 83       	std	Z+3, r24	; 0x03

		// TODO: do something every hour
	}

	// a day....
	if(RTC[TIME_H] >= 24)
     c28:	80 91 03 01 	lds	r24, 0x0103	; 0x800103 <RTC+0x3>
     c2c:	88 31       	cpi	r24, 0x18	; 24
     c2e:	78 f0       	brcs	.+30     	; 0xc4e <__vector_9+0x17e>
	{
		RTC[TIME_H] = 0;
     c30:	e0 e0       	ldi	r30, 0x00	; 0
     c32:	f1 e0       	ldi	r31, 0x01	; 1
     c34:	13 82       	std	Z+3, r1	; 0x03
		RTC[DATE_D]++;
     c36:	82 81       	ldd	r24, Z+2	; 0x02
     c38:	8f 5f       	subi	r24, 0xFF	; 255
     c3a:	82 83       	std	Z+2, r24	; 0x02

		// advance weekday
		RTC[DATE_W]++;
     c3c:	86 81       	ldd	r24, Z+6	; 0x06
     c3e:	8f 5f       	subi	r24, 0xFF	; 255
     c40:	86 83       	std	Z+6, r24	; 0x06
		if(RTC[DATE_W] > 7)
     c42:	86 81       	ldd	r24, Z+6	; 0x06
     c44:	88 30       	cpi	r24, 0x08	; 8
     c46:	18 f0       	brcs	.+6      	; 0xc4e <__vector_9+0x17e>
		{
			RTC[DATE_W] = 1;
     c48:	81 e0       	ldi	r24, 0x01	; 1
     c4a:	80 93 06 01 	sts	0x0106, r24	; 0x800106 <RTC+0x6>
		}
	}

	// a full month with leap year checking!
	if(
		(RTC[DATE_D] > 31)
     c4e:	80 91 02 01 	lds	r24, 0x0102	; 0x800102 <RTC+0x2>
			RTC[DATE_W] = 1;
		}
	}

	// a full month with leap year checking!
	if(
     c52:	80 32       	cpi	r24, 0x20	; 32
     c54:	68 f5       	brcc	.+90     	; 0xcb0 <__vector_9+0x1e0>
		(RTC[DATE_D] > 31)
		|| (
			(RTC[DATE_D] == 31)
     c56:	80 91 02 01 	lds	r24, 0x0102	; 0x800102 <RTC+0x2>
	}

	// a full month with leap year checking!
	if(
		(RTC[DATE_D] > 31)
		|| (
     c5a:	8f 31       	cpi	r24, 0x1F	; 31
     c5c:	81 f4       	brne	.+32     	; 0xc7e <__vector_9+0x1ae>
			(RTC[DATE_D] == 31)
			&& (
				(RTC[DATE_M] == 4)
     c5e:	80 91 01 01 	lds	r24, 0x0101	; 0x800101 <RTC+0x1>
	// a full month with leap year checking!
	if(
		(RTC[DATE_D] > 31)
		|| (
			(RTC[DATE_D] == 31)
			&& (
     c62:	84 30       	cpi	r24, 0x04	; 4
     c64:	29 f1       	breq	.+74     	; 0xcb0 <__vector_9+0x1e0>
				(RTC[DATE_M] == 4)
				|| (RTC[DATE_M] == 6)
     c66:	80 91 01 01 	lds	r24, 0x0101	; 0x800101 <RTC+0x1>
     c6a:	86 30       	cpi	r24, 0x06	; 6
     c6c:	09 f1       	breq	.+66     	; 0xcb0 <__vector_9+0x1e0>
				|| (RTC[DATE_M] == 9)
     c6e:	80 91 01 01 	lds	r24, 0x0101	; 0x800101 <RTC+0x1>
     c72:	89 30       	cpi	r24, 0x09	; 9
     c74:	e9 f0       	breq	.+58     	; 0xcb0 <__vector_9+0x1e0>
				|| (RTC[DATE_M] == 11)
     c76:	80 91 01 01 	lds	r24, 0x0101	; 0x800101 <RTC+0x1>
     c7a:	8b 30       	cpi	r24, 0x0B	; 11
     c7c:	c9 f0       	breq	.+50     	; 0xcb0 <__vector_9+0x1e0>
				)
		)
		|| (
			(RTC[DATE_D] == 30)
     c7e:	80 91 02 01 	lds	r24, 0x0102	; 0x800102 <RTC+0x2>
				|| (RTC[DATE_M] == 6)
				|| (RTC[DATE_M] == 9)
				|| (RTC[DATE_M] == 11)
				)
		)
		|| (
     c82:	8e 31       	cpi	r24, 0x1E	; 30
     c84:	21 f4       	brne	.+8      	; 0xc8e <__vector_9+0x1be>
			(RTC[DATE_D] == 30)
			&& (RTC[DATE_M] == 2)
     c86:	80 91 01 01 	lds	r24, 0x0101	; 0x800101 <RTC+0x1>
     c8a:	82 30       	cpi	r24, 0x02	; 2
     c8c:	89 f0       	breq	.+34     	; 0xcb0 <__vector_9+0x1e0>
		)
		|| (
			(RTC[DATE_D] == 29)
     c8e:	80 91 02 01 	lds	r24, 0x0102	; 0x800102 <RTC+0x2>
		)
		|| (
			(RTC[DATE_D] == 30)
			&& (RTC[DATE_M] == 2)
		)
		|| (
     c92:	8d 31       	cpi	r24, 0x1D	; 29
     c94:	a1 f4       	brne	.+40     	; 0xcbe <__vector_9+0x1ee>
			(RTC[DATE_D] == 29)
			&& (RTC[DATE_M] == 2)
     c96:	80 91 01 01 	lds	r24, 0x0101	; 0x800101 <RTC+0x1>
     c9a:	82 30       	cpi	r24, 0x02	; 2
     c9c:	81 f4       	brne	.+32     	; 0xcbe <__vector_9+0x1ee>
			&& !isleapyear(2000+RTC[DATE_Y])
     c9e:	80 91 00 01 	lds	r24, 0x0100	; 0x800100 <RTC>
     ca2:	90 e0       	ldi	r25, 0x00	; 0
     ca4:	80 53       	subi	r24, 0x30	; 48
     ca6:	98 4f       	sbci	r25, 0xF8	; 248
     ca8:	0e 94 33 05 	call	0xa66	; 0xa66 <isleapyear>
     cac:	81 11       	cpse	r24, r1
     cae:	07 c0       	rjmp	.+14     	; 0xcbe <__vector_9+0x1ee>
		)
	)
	{
		RTC[DATE_D] = 1;
     cb0:	e0 e0       	ldi	r30, 0x00	; 0
     cb2:	f1 e0       	ldi	r31, 0x01	; 1
     cb4:	81 e0       	ldi	r24, 0x01	; 1
     cb6:	82 83       	std	Z+2, r24	; 0x02
		RTC[DATE_M]++;
     cb8:	81 81       	ldd	r24, Z+1	; 0x01
     cba:	8f 5f       	subi	r24, 0xFF	; 255
     cbc:	81 83       	std	Z+1, r24	; 0x01
	}

	// HAPPY NEW YEAR!
	if(RTC[DATE_M] >= 13)
     cbe:	80 91 01 01 	lds	r24, 0x0101	; 0x800101 <RTC+0x1>
     cc2:	8d 30       	cpi	r24, 0x0D	; 13
     cc4:	38 f0       	brcs	.+14     	; 0xcd4 <__vector_9+0x204>
	{
		RTC[DATE_Y]++;
     cc6:	e0 e0       	ldi	r30, 0x00	; 0
     cc8:	f1 e0       	ldi	r31, 0x01	; 1
     cca:	80 81       	ld	r24, Z
     ccc:	8f 5f       	subi	r24, 0xFF	; 255
     cce:	80 83       	st	Z, r24
		RTC[DATE_M] = 1;
     cd0:	81 e0       	ldi	r24, 0x01	; 1
     cd2:	81 83       	std	Z+1, r24	; 0x01
	}

	rtc_busy = 0; // for sync
     cd4:	10 92 2a 01 	sts	0x012A, r1	; 0x80012a <__data_end>
}
     cd8:	ff 91       	pop	r31
     cda:	ef 91       	pop	r30
     cdc:	bf 91       	pop	r27
     cde:	af 91       	pop	r26
     ce0:	9f 91       	pop	r25
     ce2:	8f 91       	pop	r24
     ce4:	7f 91       	pop	r23
     ce6:	6f 91       	pop	r22
     ce8:	5f 91       	pop	r21
     cea:	4f 91       	pop	r20
     cec:	3f 91       	pop	r19
     cee:	2f 91       	pop	r18
     cf0:	1f 91       	pop	r17
     cf2:	0f 91       	pop	r16
     cf4:	ff 90       	pop	r15
     cf6:	ef 90       	pop	r14
     cf8:	df 90       	pop	r13
     cfa:	cf 90       	pop	r12
     cfc:	bf 90       	pop	r11
     cfe:	af 90       	pop	r10
     d00:	0f 90       	pop	r0
     d02:	0f be       	out	0x3f, r0	; 63
     d04:	0f 90       	pop	r0
     d06:	1f 90       	pop	r1
     d08:	18 95       	reti

00000d0a <read_adc_mv>:
	return ( ( !(y % 4) && (y % 100) ) || !(y % 400) );
}

// reads average ADC value
double read_adc_mv(uint8_t admux_val, double Rup, double Rdn, uint8_t how_many)
{
     d0a:	2f 92       	push	r2
     d0c:	3f 92       	push	r3
     d0e:	4f 92       	push	r4
     d10:	5f 92       	push	r5
     d12:	6f 92       	push	r6
     d14:	7f 92       	push	r7
     d16:	8f 92       	push	r8
     d18:	9f 92       	push	r9
     d1a:	af 92       	push	r10
     d1c:	bf 92       	push	r11
     d1e:	cf 92       	push	r12
     d20:	df 92       	push	r13
     d22:	ef 92       	push	r14
     d24:	ff 92       	push	r15
     d26:	0f 93       	push	r16
     d28:	1f 93       	push	r17
     d2a:	cf 93       	push	r28
     d2c:	df 93       	push	r29
     d2e:	cd b7       	in	r28, 0x3d	; 61
     d30:	de b7       	in	r29, 0x3e	; 62
     d32:	2c 97       	sbiw	r28, 0x0c	; 12
     d34:	0f b6       	in	r0, 0x3f	; 63
     d36:	f8 94       	cli
     d38:	de bf       	out	0x3e, r29	; 62
     d3a:	0f be       	out	0x3f, r0	; 63
     d3c:	cd bf       	out	0x3d, r28	; 61
     d3e:	4d 83       	std	Y+5, r20	; 0x05
     d40:	5e 83       	std	Y+6, r21	; 0x06
     d42:	6f 83       	std	Y+7, r22	; 0x07
     d44:	78 87       	std	Y+8, r23	; 0x08
     d46:	09 83       	std	Y+1, r16	; 0x01
     d48:	1a 83       	std	Y+2, r17	; 0x02
     d4a:	2b 83       	std	Y+3, r18	; 0x03
     d4c:	3c 83       	std	Y+4, r19	; 0x04
     d4e:	4e 2c       	mov	r4, r14
	uint64_t volt_sum = 0;

	if(how_many==0) how_many++;
     d50:	e1 10       	cpse	r14, r1
     d52:	71 c0       	rjmp	.+226    	; 0xe36 <read_adc_mv+0x12c>
     d54:	44 24       	eor	r4, r4
     d56:	43 94       	inc	r4
     d58:	6e c0       	rjmp	.+220    	; 0xe36 <read_adc_mv+0x12c>

	// make "n" measurements, find average value
	for(uint8_t i=0; i<how_many; i++)
	{
		// Start conversion by setting ADSC on ADCSRA Register
		ADCSRA |= _BV(ADSC);
     d5a:	80 81       	ld	r24, Z
     d5c:	80 64       	ori	r24, 0x40	; 64
     d5e:	80 83       	st	Z, r24
     d60:	9a 85       	ldd	r25, Y+10	; 0x0a
     d62:	29 85       	ldd	r18, Y+9	; 0x09
     d64:	bb 85       	ldd	r27, Y+11	; 0x0b
     d66:	ac 85       	ldd	r26, Y+12	; 0x0c

		// wait until conversion complete ADSC=0 -> Complete
		while (ADCSRA & (1<<ADSC));
     d68:	80 81       	ld	r24, Z
     d6a:	86 fd       	sbrc	r24, 6
     d6c:	fd cf       	rjmp	.-6      	; 0xd68 <read_adc_mv+0x5e>
     d6e:	9a 87       	std	Y+10, r25	; 0x0a
     d70:	29 87       	std	Y+9, r18	; 0x09
     d72:	bb 87       	std	Y+11, r27	; 0x0b
     d74:	ac 87       	std	Y+12, r26	; 0x0c

		// Sum the current voltage
		volt_sum += ADCW;
     d76:	d1 01       	movw	r26, r2
     d78:	8d 90       	ld	r8, X+
     d7a:	9c 90       	ld	r9, X
     d7c:	28 2d       	mov	r18, r8
     d7e:	39 2d       	mov	r19, r9
     d80:	40 e0       	ldi	r20, 0x00	; 0
     d82:	50 e0       	ldi	r21, 0x00	; 0
     d84:	60 e0       	ldi	r22, 0x00	; 0
     d86:	70 e0       	ldi	r23, 0x00	; 0
     d88:	80 e0       	ldi	r24, 0x00	; 0
     d8a:	90 e0       	ldi	r25, 0x00	; 0
     d8c:	a7 2c       	mov	r10, r7
     d8e:	b5 2c       	mov	r11, r5
     d90:	ca 84       	ldd	r12, Y+10	; 0x0a
     d92:	d9 84       	ldd	r13, Y+9	; 0x09
     d94:	eb 84       	ldd	r14, Y+11	; 0x0b
     d96:	fc 84       	ldd	r15, Y+12	; 0x0c
     d98:	0e 94 0a 11 	call	0x2214	; 0x2214 <__adddi3>
     d9c:	72 2e       	mov	r7, r18
     d9e:	53 2e       	mov	r5, r19
     da0:	4a 87       	std	Y+10, r20	; 0x0a
     da2:	59 87       	std	Y+9, r21	; 0x09
     da4:	6b 87       	std	Y+11, r22	; 0x0b
     da6:	7c 87       	std	Y+12, r23	; 0x0c
     da8:	08 2f       	mov	r16, r24
     daa:	19 2f       	mov	r17, r25

	// no effect since ADATE in ADCSRA is = 0
	ADCSRB = 0x00;

	// make "n" measurements, find average value
	for(uint8_t i=0; i<how_many; i++)
     dac:	63 94       	inc	r6
     dae:	64 14       	cp	r6, r4
     db0:	a0 f2       	brcs	.-88     	; 0xd5a <read_adc_mv+0x50>
		volt_sum += ADCW;
	}
	volt_sum /= how_many;

	// convert from 0..1023 to 0..Vref
	double adc_voltage = (3300.0f / 1024.0f) * (double)volt_sum;
     db2:	a4 2c       	mov	r10, r4
     db4:	b1 2c       	mov	r11, r1
     db6:	c1 2c       	mov	r12, r1
     db8:	d1 2c       	mov	r13, r1
     dba:	e1 2c       	mov	r14, r1
     dbc:	f1 2c       	mov	r15, r1
     dbe:	00 e0       	ldi	r16, 0x00	; 0
     dc0:	10 e0       	ldi	r17, 0x00	; 0
     dc2:	27 2d       	mov	r18, r7
     dc4:	0e 94 24 10 	call	0x2048	; 0x2048 <__udivdi3>
     dc8:	0e 94 4f 0b 	call	0x169e	; 0x169e <__floatundisf>
     dcc:	20 e0       	ldi	r18, 0x00	; 0
     dce:	30 e4       	ldi	r19, 0x40	; 64
     dd0:	4e e4       	ldi	r20, 0x4E	; 78
     dd2:	50 e4       	ldi	r21, 0x40	; 64
     dd4:	0e 94 07 0c 	call	0x180e	; 0x180e <__mulsf3>
     dd8:	06 2f       	mov	r16, r22
     dda:	17 2f       	mov	r17, r23
     ddc:	8a 87       	std	Y+10, r24	; 0x0a
     dde:	99 87       	std	Y+9, r25	; 0x09

	// no voltage divider connected
	if(Rdn == 0) {
     de0:	20 e0       	ldi	r18, 0x00	; 0
     de2:	30 e0       	ldi	r19, 0x00	; 0
     de4:	a9 01       	movw	r20, r18
     de6:	69 81       	ldd	r22, Y+1	; 0x01
     de8:	7a 81       	ldd	r23, Y+2	; 0x02
     dea:	8b 81       	ldd	r24, Y+3	; 0x03
     dec:	9c 81       	ldd	r25, Y+4	; 0x04
     dee:	0e 94 d8 0a 	call	0x15b0	; 0x15b0 <__cmpsf2>
     df2:	88 23       	and	r24, r24
     df4:	d9 f0       	breq	.+54     	; 0xe2c <read_adc_mv+0x122>
		return adc_voltage;
	}

	// +voltage divider (if any)
	return (adc_voltage * ((Rup + Rdn)/Rdn));
     df6:	2d 81       	ldd	r18, Y+5	; 0x05
     df8:	3e 81       	ldd	r19, Y+6	; 0x06
     dfa:	4f 81       	ldd	r20, Y+7	; 0x07
     dfc:	58 85       	ldd	r21, Y+8	; 0x08
     dfe:	69 81       	ldd	r22, Y+1	; 0x01
     e00:	7a 81       	ldd	r23, Y+2	; 0x02
     e02:	8b 81       	ldd	r24, Y+3	; 0x03
     e04:	9c 81       	ldd	r25, Y+4	; 0x04
     e06:	0e 94 6c 0a 	call	0x14d8	; 0x14d8 <__addsf3>
     e0a:	29 81       	ldd	r18, Y+1	; 0x01
     e0c:	3a 81       	ldd	r19, Y+2	; 0x02
     e0e:	4b 81       	ldd	r20, Y+3	; 0x03
     e10:	5c 81       	ldd	r21, Y+4	; 0x04
     e12:	0e 94 dd 0a 	call	0x15ba	; 0x15ba <__divsf3>
     e16:	20 2f       	mov	r18, r16
     e18:	31 2f       	mov	r19, r17
     e1a:	4a 85       	ldd	r20, Y+10	; 0x0a
     e1c:	59 85       	ldd	r21, Y+9	; 0x09
     e1e:	0e 94 07 0c 	call	0x180e	; 0x180e <__mulsf3>
     e22:	06 2f       	mov	r16, r22
     e24:	17 2f       	mov	r17, r23
     e26:	8d 83       	std	Y+5, r24	; 0x05
     e28:	99 83       	std	Y+1, r25	; 0x01
     e2a:	21 c0       	rjmp	.+66     	; 0xe6e <read_adc_mv+0x164>
	// convert from 0..1023 to 0..Vref
	double adc_voltage = (3300.0f / 1024.0f) * (double)volt_sum;

	// no voltage divider connected
	if(Rdn == 0) {
		return adc_voltage;
     e2c:	ba 85       	ldd	r27, Y+10	; 0x0a
     e2e:	bd 83       	std	Y+5, r27	; 0x05
     e30:	89 85       	ldd	r24, Y+9	; 0x09
     e32:	89 83       	std	Y+1, r24	; 0x01
     e34:	1c c0       	rjmp	.+56     	; 0xe6e <read_adc_mv+0x164>
	uint64_t volt_sum = 0;

	if(how_many==0) how_many++;

	// set ADMUX channel and reference voltage
	ADMUX = admux_val;
     e36:	80 93 7c 00 	sts	0x007C, r24	; 0x80007c <__DATA_REGION_ORIGIN__+0x1c>

	// initialize the ADC circuit
	ADCSRA = _BV(ADEN) | _BV(ADPS2) | _BV(ADPS1); 		// enabled, division factor: 64
     e3a:	86 e8       	ldi	r24, 0x86	; 134
     e3c:	80 93 7a 00 	sts	0x007A, r24	; 0x80007a <__DATA_REGION_ORIGIN__+0x1a>

	// no effect since ADATE in ADCSRA is = 0
	ADCSRB = 0x00;
     e40:	10 92 7b 00 	sts	0x007B, r1	; 0x80007b <__DATA_REGION_ORIGIN__+0x1b>
     e44:	71 2c       	mov	r7, r1
     e46:	40 e0       	ldi	r20, 0x00	; 0
     e48:	50 e0       	ldi	r21, 0x00	; 0
     e4a:	b0 e0       	ldi	r27, 0x00	; 0
     e4c:	a0 e0       	ldi	r26, 0x00	; 0
     e4e:	51 2c       	mov	r5, r1
     e50:	61 2c       	mov	r6, r1

	// make "n" measurements, find average value
	for(uint8_t i=0; i<how_many; i++)
	{
		// Start conversion by setting ADSC on ADCSRA Register
		ADCSRA |= _BV(ADSC);
     e52:	ea e7       	ldi	r30, 0x7A	; 122
     e54:	f0 e0       	ldi	r31, 0x00	; 0

		// wait until conversion complete ADSC=0 -> Complete
		while (ADCSRA & (1<<ADSC));

		// Sum the current voltage
		volt_sum += ADCW;
     e56:	0f 2e       	mov	r0, r31
     e58:	f8 e7       	ldi	r31, 0x78	; 120
     e5a:	2f 2e       	mov	r2, r31
     e5c:	31 2c       	mov	r3, r1
     e5e:	f0 2d       	mov	r31, r0
     e60:	4a 87       	std	Y+10, r20	; 0x0a
     e62:	59 87       	std	Y+9, r21	; 0x09
     e64:	bb 87       	std	Y+11, r27	; 0x0b
     e66:	ac 87       	std	Y+12, r26	; 0x0c
     e68:	05 2d       	mov	r16, r5
     e6a:	16 2d       	mov	r17, r6
     e6c:	76 cf       	rjmp	.-276    	; 0xd5a <read_adc_mv+0x50>
		return adc_voltage;
	}

	// +voltage divider (if any)
	return (adc_voltage * ((Rup + Rdn)/Rdn));
}
     e6e:	60 2f       	mov	r22, r16
     e70:	71 2f       	mov	r23, r17
     e72:	8d 81       	ldd	r24, Y+5	; 0x05
     e74:	99 81       	ldd	r25, Y+1	; 0x01
     e76:	2c 96       	adiw	r28, 0x0c	; 12
     e78:	0f b6       	in	r0, 0x3f	; 63
     e7a:	f8 94       	cli
     e7c:	de bf       	out	0x3e, r29	; 62
     e7e:	0f be       	out	0x3f, r0	; 63
     e80:	cd bf       	out	0x3d, r28	; 61
     e82:	df 91       	pop	r29
     e84:	cf 91       	pop	r28
     e86:	1f 91       	pop	r17
     e88:	0f 91       	pop	r16
     e8a:	ff 90       	pop	r15
     e8c:	ef 90       	pop	r14
     e8e:	df 90       	pop	r13
     e90:	cf 90       	pop	r12
     e92:	bf 90       	pop	r11
     e94:	af 90       	pop	r10
     e96:	9f 90       	pop	r9
     e98:	8f 90       	pop	r8
     e9a:	7f 90       	pop	r7
     e9c:	6f 90       	pop	r6
     e9e:	5f 90       	pop	r5
     ea0:	4f 90       	pop	r4
     ea2:	3f 90       	pop	r3
     ea4:	2f 90       	pop	r2
     ea6:	08 95       	ret

00000ea8 <read_temperature>:
	else {
		TCCR2B &= ~(1<<CS21);
	}
}

double read_temperature() {
     ea8:	ef 92       	push	r14
     eaa:	0f 93       	push	r16
     eac:	1f 93       	push	r17
	setHigh(TEMP_SHUT_PORT, TEMP_SHUT_PIN);
     eae:	40 9a       	sbi	0x08, 0	; 8
	delay_builtin_ms_(5);
     eb0:	85 e0       	ldi	r24, 0x05	; 5
     eb2:	90 e0       	ldi	r25, 0x00	; 0
     eb4:	0e 94 57 04 	call	0x8ae	; 0x8ae <delay_builtin_ms_>

	double adc = read_adc_mv(TEMP_C_ADMUX_VAL, 0, 0, 16);
     eb8:	68 94       	set
     eba:	ee 24       	eor	r14, r14
     ebc:	e4 f8       	bld	r14, 4
     ebe:	00 e0       	ldi	r16, 0x00	; 0
     ec0:	10 e0       	ldi	r17, 0x00	; 0
     ec2:	98 01       	movw	r18, r16
     ec4:	b9 01       	movw	r22, r18
     ec6:	a8 01       	movw	r20, r16
     ec8:	82 e0       	ldi	r24, 0x02	; 2
     eca:	0e 94 85 06 	call	0xd0a	; 0xd0a <read_adc_mv>

	setLow(TEMP_SHUT_PORT, TEMP_SHUT_PIN);
     ece:	40 98       	cbi	0x08, 0	; 8

	// TMP36F provides a 750 mV output at 25C. Output scale factor of 10 mV/C. offset is 100mV at -40C
	return (adc - 100) / 10 - 40;
     ed0:	20 e0       	ldi	r18, 0x00	; 0
     ed2:	30 e0       	ldi	r19, 0x00	; 0
     ed4:	48 ec       	ldi	r20, 0xC8	; 200
     ed6:	52 e4       	ldi	r21, 0x42	; 66
     ed8:	0e 94 6b 0a 	call	0x14d6	; 0x14d6 <__subsf3>
     edc:	20 e0       	ldi	r18, 0x00	; 0
     ede:	30 e0       	ldi	r19, 0x00	; 0
     ee0:	40 e2       	ldi	r20, 0x20	; 32
     ee2:	51 e4       	ldi	r21, 0x41	; 65
     ee4:	0e 94 dd 0a 	call	0x15ba	; 0x15ba <__divsf3>
     ee8:	20 e0       	ldi	r18, 0x00	; 0
     eea:	30 e0       	ldi	r19, 0x00	; 0
     eec:	40 e2       	ldi	r20, 0x20	; 32
     eee:	52 e4       	ldi	r21, 0x42	; 66
     ef0:	0e 94 6b 0a 	call	0x14d6	; 0x14d6 <__subsf3>
}
     ef4:	1f 91       	pop	r17
     ef6:	0f 91       	pop	r16
     ef8:	ef 90       	pop	r14
     efa:	08 95       	ret

00000efc <read_solar_volt>:

double read_solar_volt() {
     efc:	ef 92       	push	r14
     efe:	0f 93       	push	r16
     f00:	1f 93       	push	r17
	return read_adc_mv(SOL_VOLT_ADMUX_VAL, 47000.0, 47000.0, 16);
     f02:	68 94       	set
     f04:	ee 24       	eor	r14, r14
     f06:	e4 f8       	bld	r14, 4
     f08:	00 e0       	ldi	r16, 0x00	; 0
     f0a:	18 e9       	ldi	r17, 0x98	; 152
     f0c:	27 e3       	ldi	r18, 0x37	; 55
     f0e:	37 e4       	ldi	r19, 0x47	; 71
     f10:	b9 01       	movw	r22, r18
     f12:	a8 01       	movw	r20, r16
     f14:	85 e0       	ldi	r24, 0x05	; 5
     f16:	0e 94 85 06 	call	0xd0a	; 0xd0a <read_adc_mv>
}
     f1a:	1f 91       	pop	r17
     f1c:	0f 91       	pop	r16
     f1e:	ef 90       	pop	r14
     f20:	08 95       	ret

00000f22 <read_boost_volt>:

double read_boost_volt() {
     f22:	ef 92       	push	r14
     f24:	0f 93       	push	r16
     f26:	1f 93       	push	r17
	return read_adc_mv(BOOST_VOLT_ADMUX_VAL, 47000.0, 47000.0, 16);
     f28:	68 94       	set
     f2a:	ee 24       	eor	r14, r14
     f2c:	e4 f8       	bld	r14, 4
     f2e:	00 e0       	ldi	r16, 0x00	; 0
     f30:	18 e9       	ldi	r17, 0x98	; 152
     f32:	27 e3       	ldi	r18, 0x37	; 55
     f34:	37 e4       	ldi	r19, 0x47	; 71
     f36:	b9 01       	movw	r22, r18
     f38:	a8 01       	movw	r20, r16
     f3a:	84 e0       	ldi	r24, 0x04	; 4
     f3c:	0e 94 85 06 	call	0xd0a	; 0xd0a <read_adc_mv>
}
     f40:	1f 91       	pop	r17
     f42:	0f 91       	pop	r16
     f44:	ef 90       	pop	r14
     f46:	08 95       	ret

00000f48 <read_batt_volt>:

double read_batt_volt() {
     f48:	ef 92       	push	r14
     f4a:	0f 93       	push	r16
     f4c:	1f 93       	push	r17
	return read_adc_mv(BATT_VOLT_ADMUX_VAL, 47000.0, 100000.0, 16);
     f4e:	68 94       	set
     f50:	ee 24       	eor	r14, r14
     f52:	e4 f8       	bld	r14, 4
     f54:	00 e0       	ldi	r16, 0x00	; 0
     f56:	10 e5       	ldi	r17, 0x50	; 80
     f58:	23 ec       	ldi	r18, 0xC3	; 195
     f5a:	37 e4       	ldi	r19, 0x47	; 71
     f5c:	40 e0       	ldi	r20, 0x00	; 0
     f5e:	58 e9       	ldi	r21, 0x98	; 152
     f60:	67 e3       	ldi	r22, 0x37	; 55
     f62:	77 e4       	ldi	r23, 0x47	; 71
     f64:	86 e0       	ldi	r24, 0x06	; 6
     f66:	0e 94 85 06 	call	0xd0a	; 0xd0a <read_adc_mv>
}
     f6a:	1f 91       	pop	r17
     f6c:	0f 91       	pop	r16
     f6e:	ef 90       	pop	r14
     f70:	08 95       	ret

00000f72 <send_telemetry>:
volatile uint8_t bools[BOOL_BANK_SIZE] = { 0, 0 }; 				// 8 global boolean values per BOOL_BANK_SIZE
volatile uint8_t rtc_slow_mode = 0;
volatile uint64_t seconds_counter = 0;
volatile uint8_t rtc_busy = 0;

void send_telemetry() {
     f72:	2f 92       	push	r2
     f74:	3f 92       	push	r3
     f76:	4f 92       	push	r4
     f78:	5f 92       	push	r5
     f7a:	6f 92       	push	r6
     f7c:	7f 92       	push	r7
     f7e:	8f 92       	push	r8
     f80:	9f 92       	push	r9
     f82:	af 92       	push	r10
     f84:	bf 92       	push	r11
     f86:	ff 92       	push	r15
     f88:	0f 93       	push	r16
     f8a:	1f 93       	push	r17
     f8c:	cf 93       	push	r28
     f8e:	df 93       	push	r29
     f90:	cd b7       	in	r28, 0x3d	; 61
     f92:	de b7       	in	r29, 0x3e	; 62
     f94:	6e 97       	sbiw	r28, 0x1e	; 30
     f96:	0f b6       	in	r0, 0x3f	; 63
     f98:	f8 94       	cli
     f9a:	de bf       	out	0x3e, r29	; 62
     f9c:	0f be       	out	0x3f, r0	; 63
     f9e:	cd bf       	out	0x3d, r28	; 61
	double solar_volt = read_solar_volt();
     fa0:	0e 94 7e 07 	call	0xefc	; 0xefc <read_solar_volt>
     fa4:	6b 8f       	std	Y+27, r22	; 0x1b
     fa6:	7c 8f       	std	Y+28, r23	; 0x1c
     fa8:	8d 8f       	std	Y+29, r24	; 0x1d
     faa:	9e 8f       	std	Y+30, r25	; 0x1e
	double boost_volt = read_boost_volt();
     fac:	0e 94 91 07 	call	0xf22	; 0xf22 <read_boost_volt>
     fb0:	4b 01       	movw	r8, r22
     fb2:	5c 01       	movw	r10, r24
	double batt_volt = read_batt_volt();
     fb4:	0e 94 a4 07 	call	0xf48	; 0xf48 <read_batt_volt>
     fb8:	2b 01       	movw	r4, r22
     fba:	3c 01       	movw	r6, r24
	double temperature = read_temperature();
     fbc:	0e 94 54 07 	call	0xea8	; 0xea8 <read_temperature>
     fc0:	f6 2e       	mov	r15, r22
     fc2:	07 2f       	mov	r16, r23
     fc4:	38 2e       	mov	r3, r24
     fc6:	29 2e       	mov	r2, r25
	//		-17=temperature, or without the "-" when positive
	//		HHH=hacking attempts 0-999min
	//		TTT=charging time in minutes 0-999min

	uint8_t charging_or_not = 'N';
	if(!(BATT_CHRG_PINREG & _BV(BATT_CHRG_PIN))) charging_or_not = 'C';
     fc8:	33 99       	sbic	0x06, 3	; 6
     fca:	02 c0       	rjmp	.+4      	; 0xfd0 <send_telemetry+0x5e>
     fcc:	13 e4       	ldi	r17, 0x43	; 67
     fce:	01 c0       	rjmp	.+2      	; 0xfd2 <send_telemetry+0x60>
	//		4.1=battery voltage
	//		-17=temperature, or without the "-" when positive
	//		HHH=hacking attempts 0-999min
	//		TTT=charging time in minutes 0-999min

	uint8_t charging_or_not = 'N';
     fd0:	1e e4       	ldi	r17, 0x4E	; 78
	if(!(BATT_CHRG_PINREG & _BV(BATT_CHRG_PIN))) charging_or_not = 'C';

	uint16_t charging_time_min = charging_time_sec / 60;
     fd2:	60 91 40 01 	lds	r22, 0x0140	; 0x800140 <charging_time_sec>
     fd6:	70 91 41 01 	lds	r23, 0x0141	; 0x800141 <charging_time_sec+0x1>
     fda:	80 91 42 01 	lds	r24, 0x0142	; 0x800142 <charging_time_sec+0x2>
     fde:	90 91 43 01 	lds	r25, 0x0143	; 0x800143 <charging_time_sec+0x3>
     fe2:	2c e3       	ldi	r18, 0x3C	; 60
     fe4:	30 e0       	ldi	r19, 0x00	; 0
     fe6:	40 e0       	ldi	r20, 0x00	; 0
     fe8:	50 e0       	ldi	r21, 0x00	; 0
     fea:	0e 94 f1 0f 	call	0x1fe2	; 0x1fe2 <__udivmodsi4>
     fee:	28 3e       	cpi	r18, 0xE8	; 232
     ff0:	83 e0       	ldi	r24, 0x03	; 3
     ff2:	38 07       	cpc	r19, r24
     ff4:	10 f0       	brcs	.+4      	; 0xffa <send_telemetry+0x88>
     ff6:	27 ee       	ldi	r18, 0xE7	; 231
     ff8:	33 e0       	ldi	r19, 0x03	; 3
	if(charging_time_min > 999) charging_time_min = 999;
	
	if(hacking_attempts_cnt >= 100) hacking_attempts_cnt = 99; // we dont have space in param to have 3 digits here
     ffa:	80 91 3e 01 	lds	r24, 0x013E	; 0x80013e <hacking_attempts_cnt>
     ffe:	84 36       	cpi	r24, 0x64	; 100
    1000:	18 f0       	brcs	.+6      	; 0x1008 <send_telemetry+0x96>
    1002:	83 e6       	ldi	r24, 0x63	; 99
    1004:	80 93 3e 01 	sts	0x013E, r24	; 0x80013e <hacking_attempts_cnt>

	uint8_t param[26];
	sprintf((char *)param, "%c#%.1f#%.1f#%.2f#%.0f#%d#%d#$", charging_or_not, solar_volt/1000.0, boost_volt/1000.0, batt_volt/1000.0, temperature, hacking_attempts_cnt, charging_time_min);
    1008:	80 91 3e 01 	lds	r24, 0x013E	; 0x80013e <hacking_attempts_cnt>
    100c:	3f 93       	push	r19
    100e:	2f 93       	push	r18
    1010:	1f 92       	push	r1
    1012:	8f 93       	push	r24
    1014:	2f 92       	push	r2
    1016:	3f 92       	push	r3
    1018:	0f 93       	push	r16
    101a:	ff 92       	push	r15
    101c:	20 e0       	ldi	r18, 0x00	; 0
    101e:	30 e0       	ldi	r19, 0x00	; 0
    1020:	4a e7       	ldi	r20, 0x7A	; 122
    1022:	54 e4       	ldi	r21, 0x44	; 68
    1024:	c3 01       	movw	r24, r6
    1026:	b2 01       	movw	r22, r4
    1028:	0e 94 dd 0a 	call	0x15ba	; 0x15ba <__divsf3>
    102c:	9f 93       	push	r25
    102e:	8f 93       	push	r24
    1030:	7f 93       	push	r23
    1032:	6f 93       	push	r22
    1034:	20 e0       	ldi	r18, 0x00	; 0
    1036:	30 e0       	ldi	r19, 0x00	; 0
    1038:	4a e7       	ldi	r20, 0x7A	; 122
    103a:	54 e4       	ldi	r21, 0x44	; 68
    103c:	c5 01       	movw	r24, r10
    103e:	b4 01       	movw	r22, r8
    1040:	0e 94 dd 0a 	call	0x15ba	; 0x15ba <__divsf3>
    1044:	9f 93       	push	r25
    1046:	8f 93       	push	r24
    1048:	7f 93       	push	r23
    104a:	6f 93       	push	r22
    104c:	20 e0       	ldi	r18, 0x00	; 0
    104e:	30 e0       	ldi	r19, 0x00	; 0
    1050:	4a e7       	ldi	r20, 0x7A	; 122
    1052:	54 e4       	ldi	r21, 0x44	; 68
    1054:	6b 8d       	ldd	r22, Y+27	; 0x1b
    1056:	7c 8d       	ldd	r23, Y+28	; 0x1c
    1058:	8d 8d       	ldd	r24, Y+29	; 0x1d
    105a:	9e 8d       	ldd	r25, Y+30	; 0x1e
    105c:	0e 94 dd 0a 	call	0x15ba	; 0x15ba <__divsf3>
    1060:	9f 93       	push	r25
    1062:	8f 93       	push	r24
    1064:	7f 93       	push	r23
    1066:	6f 93       	push	r22
    1068:	1f 92       	push	r1
    106a:	1f 93       	push	r17
    106c:	8b e0       	ldi	r24, 0x0B	; 11
    106e:	91 e0       	ldi	r25, 0x01	; 1
    1070:	9f 93       	push	r25
    1072:	8f 93       	push	r24
    1074:	8e 01       	movw	r16, r28
    1076:	0f 5f       	subi	r16, 0xFF	; 255
    1078:	1f 4f       	sbci	r17, 0xFF	; 255
    107a:	1f 93       	push	r17
    107c:	0f 93       	push	r16
    107e:	0e 94 52 12 	call	0x24a4	; 0x24a4 <sprintf>

	send_command(RF_CMD_TELEDATA, param, 26);
    1082:	4a e1       	ldi	r20, 0x1A	; 26
    1084:	b8 01       	movw	r22, r16
    1086:	86 e0       	ldi	r24, 0x06	; 6
    1088:	98 e7       	ldi	r25, 0x78	; 120
    108a:	0e 94 bc 03 	call	0x778	; 0x778 <send_command>

	hacking_attempts_cnt = 0; // we can clear this one now
    108e:	10 92 3e 01 	sts	0x013E, r1	; 0x80013e <hacking_attempts_cnt>
}
    1092:	0f b6       	in	r0, 0x3f	; 63
    1094:	f8 94       	cli
    1096:	de bf       	out	0x3e, r29	; 62
    1098:	0f be       	out	0x3f, r0	; 63
    109a:	cd bf       	out	0x3d, r28	; 61
    109c:	6e 96       	adiw	r28, 0x1e	; 30
    109e:	0f b6       	in	r0, 0x3f	; 63
    10a0:	f8 94       	cli
    10a2:	de bf       	out	0x3e, r29	; 62
    10a4:	0f be       	out	0x3f, r0	; 63
    10a6:	cd bf       	out	0x3d, r28	; 61
    10a8:	df 91       	pop	r29
    10aa:	cf 91       	pop	r28
    10ac:	1f 91       	pop	r17
    10ae:	0f 91       	pop	r16
    10b0:	ff 90       	pop	r15
    10b2:	bf 90       	pop	r11
    10b4:	af 90       	pop	r10
    10b6:	9f 90       	pop	r9
    10b8:	8f 90       	pop	r8
    10ba:	7f 90       	pop	r7
    10bc:	6f 90       	pop	r6
    10be:	5f 90       	pop	r5
    10c0:	4f 90       	pop	r4
    10c2:	3f 90       	pop	r3
    10c4:	2f 90       	pop	r2
    10c6:	08 95       	ret

000010c8 <next_within_window>:
}

// this looks stupid
uint8_t next_within_window(uint16_t next, uint16_t baseline, uint16_t window) {
	// no overflow of window
	if(baseline + window > baseline) {
    10c8:	46 0f       	add	r20, r22
    10ca:	57 1f       	adc	r21, r23
    10cc:	64 17       	cp	r22, r20
    10ce:	75 07       	cpc	r23, r21
    10d0:	48 f4       	brcc	.+18     	; 0x10e4 <next_within_window+0x1c>
		// NEXT(BASELINE .. BASELINE + WINDOW)
		if(next > baseline && next <= (baseline + window)) {
    10d2:	68 17       	cp	r22, r24
    10d4:	79 07       	cpc	r23, r25
    10d6:	78 f4       	brcc	.+30     	; 0x10f6 <next_within_window+0x2e>
			return 1;
    10d8:	21 e0       	ldi	r18, 0x01	; 1
    10da:	48 17       	cp	r20, r24
    10dc:	59 07       	cpc	r21, r25
    10de:	70 f4       	brcc	.+28     	; 0x10fc <next_within_window+0x34>
    10e0:	20 e0       	ldi	r18, 0x00	; 0
    10e2:	0c c0       	rjmp	.+24     	; 0x10fc <next_within_window+0x34>
		}
	}
	// window overflows
	else {
		// upper window NEXT(BASELINE .. MAX)
		if(next > baseline && next <= 0xFFFF) {
    10e4:	68 17       	cp	r22, r24
    10e6:	79 07       	cpc	r23, r25
    10e8:	40 f0       	brcs	.+16     	; 0x10fa <next_within_window+0x32>
uint8_t next_within_window(uint16_t next, uint16_t baseline, uint16_t window) {
	// no overflow of window
	if(baseline + window > baseline) {
		// NEXT(BASELINE .. BASELINE + WINDOW)
		if(next > baseline && next <= (baseline + window)) {
			return 1;
    10ea:	21 e0       	ldi	r18, 0x01	; 1
    10ec:	48 17       	cp	r20, r24
    10ee:	59 07       	cpc	r21, r25
    10f0:	28 f4       	brcc	.+10     	; 0x10fc <next_within_window+0x34>
    10f2:	20 e0       	ldi	r18, 0x00	; 0
    10f4:	03 c0       	rjmp	.+6      	; 0x10fc <next_within_window+0x34>
			if(next <= baseline + window) {
				return 1;
			}
		}
	}
	return 0;
    10f6:	20 e0       	ldi	r18, 0x00	; 0
    10f8:	01 c0       	rjmp	.+2      	; 0x10fc <next_within_window+0x34>
	}
	// window overflows
	else {
		// upper window NEXT(BASELINE .. MAX)
		if(next > baseline && next <= 0xFFFF) {
			return 1;
    10fa:	21 e0       	ldi	r18, 0x01	; 1
				return 1;
			}
		}
	}
	return 0;
}
    10fc:	82 2f       	mov	r24, r18
    10fe:	08 95       	ret

00001100 <process_command>:

	// back to listening
	nrf24l01_setRX();
}

void process_command(uint8_t *rx_buff) {
    1100:	cf 92       	push	r12
    1102:	df 92       	push	r13
    1104:	ef 92       	push	r14
    1106:	ff 92       	push	r15
    1108:	0f 93       	push	r16
    110a:	1f 93       	push	r17
    110c:	cf 93       	push	r28
    110e:	df 93       	push	r29
    1110:	ec 01       	movw	r28, r24
    1112:	8a 81       	ldd	r24, Y+2	; 0x02
    1114:	cb 80       	ldd	r12, Y+3	; 0x03
    1116:	d1 2c       	mov	r13, r1
    1118:	e1 2c       	mov	r14, r1
    111a:	f1 2c       	mov	r15, r1
    111c:	fc 2c       	mov	r15, r12
    111e:	ee 24       	eor	r14, r14
    1120:	dd 24       	eor	r13, r13
    1122:	cc 24       	eor	r12, r12
    1124:	e8 2a       	or	r14, r24
    1126:	88 81       	ld	r24, Y
    1128:	a7 01       	movw	r20, r14
    112a:	96 01       	movw	r18, r12
    112c:	28 2b       	or	r18, r24
    112e:	da 01       	movw	r26, r20
    1130:	c9 01       	movw	r24, r18

	// decrypt access code
	uint32_t encrypted = rx_buff[0];
	encrypted |= (uint16_t)(rx_buff[1]) << 8;
	encrypted |= (uint32_t)(rx_buff[2]) << 16;
	encrypted |= (uint32_t)(rx_buff[3]) << 24;
    1132:	c9 80       	ldd	r12, Y+1	; 0x01
    1134:	d1 2c       	mov	r13, r1
    1136:	dc 2c       	mov	r13, r12
    1138:	cc 24       	eor	r12, r12
    113a:	e1 2c       	mov	r14, r1
    113c:	f1 2c       	mov	r15, r1
    113e:	c8 2a       	or	r12, r24
    1140:	d9 2a       	or	r13, r25
    1142:	ea 2a       	or	r14, r26
    1144:	fb 2a       	or	r15, r27

	// extract command from the encrypted portion, it is at the upper 2 bytes
	uint16_t dec_command = encrypted >> 16;

	// extract command from non-encrypted (plaintext) portion
	uint16_t raw_command = rx_buff[4];
    1146:	8c 81       	ldd	r24, Y+4	; 0x04
	raw_command |= (uint16_t)(rx_buff[5]) << 8;

	// verify message authenticity:
	// 1. sequence must be within the window
	// 2. command from encrypted portion and plaintext command must match (I know, I know, plaintext attack...)
	if(
    1148:	2d 81       	ldd	r18, Y+5	; 0x05
    114a:	90 e0       	ldi	r25, 0x00	; 0
    114c:	92 2b       	or	r25, r18
    114e:	e8 16       	cp	r14, r24
    1150:	f9 06       	cpc	r15, r25
    1152:	09 f0       	breq	.+2      	; 0x1156 <process_command+0x56>
    1154:	66 c0       	rjmp	.+204    	; 0x1222 <process_command+0x122>
		dec_command == raw_command
		// && next_within_window(enc_rx_counter, kl_rx_counter, 64)
	)
	{
		kl_rx_counter = enc_rx_counter; // keep track of the sync counter
    1156:	d0 92 52 01 	sts	0x0152, r13	; 0x800152 <kl_rx_counter+0x1>
    115a:	c0 92 51 01 	sts	0x0151, r12	; 0x800151 <kl_rx_counter>
		kl_rx_counter_resync = enc_rx_counter; // follow this one always
    115e:	d0 92 48 01 	sts	0x0148, r13	; 0x800148 <kl_rx_counter_resync+0x1>
    1162:	c0 92 47 01 	sts	0x0147, r12	; 0x800147 <kl_rx_counter_resync>
		update_kl_settings_to_eeprom(); // save (everything every time)
    1166:	0e 94 9e 03 	call	0x73c	; 0x73c <update_kl_settings_to_eeprom>

		// optional parameter pointer
		uint8_t *param = rx_buff + 6; // processed 6 bytes so far, so skip them. (Note: we are left with 32-6 = 26 for the parameter. 32 because nRF24L01 packet is 32 bytes long max)

		switch(dec_command) {
    116a:	39 e1       	ldi	r19, 0x19	; 25
    116c:	e3 16       	cp	r14, r19
    116e:	35 e5       	ldi	r19, 0x55	; 85
    1170:	f3 06       	cpc	r15, r19
    1172:	41 f1       	breq	.+80     	; 0x11c4 <process_command+0xc4>
    1174:	58 f4       	brcc	.+22     	; 0x118c <process_command+0x8c>
    1176:	56 e9       	ldi	r21, 0x96	; 150
    1178:	e5 16       	cp	r14, r21
    117a:	54 e2       	ldi	r21, 0x24	; 36
    117c:	f5 06       	cpc	r15, r21
    117e:	c1 f0       	breq	.+48     	; 0x11b0 <process_command+0xb0>
    1180:	86 e0       	ldi	r24, 0x06	; 6
    1182:	e8 16       	cp	r14, r24
    1184:	87 e4       	ldi	r24, 0x47	; 71
    1186:	f8 06       	cpc	r15, r24
    1188:	a1 f1       	breq	.+104    	; 0x11f2 <process_command+0xf2>
    118a:	75 c0       	rjmp	.+234    	; 0x1276 <process_command+0x176>
    118c:	27 e8       	ldi	r18, 0x87	; 135
    118e:	e2 16       	cp	r14, r18
    1190:	20 e6       	ldi	r18, 0x60	; 96
    1192:	f2 06       	cpc	r15, r18
    1194:	09 f4       	brne	.+2      	; 0x1198 <process_command+0x98>
    1196:	42 c0       	rjmp	.+132    	; 0x121c <process_command+0x11c>
    1198:	33 e8       	ldi	r19, 0x83	; 131
    119a:	e3 16       	cp	r14, r19
    119c:	36 e7       	ldi	r19, 0x76	; 118
    119e:	f3 06       	cpc	r15, r19
    11a0:	51 f0       	breq	.+20     	; 0x11b6 <process_command+0xb6>
    11a2:	48 e2       	ldi	r20, 0x28	; 40
    11a4:	e4 16       	cp	r14, r20
    11a6:	46 e5       	ldi	r20, 0x56	; 86
    11a8:	f4 06       	cpc	r15, r20
    11aa:	09 f0       	breq	.+2      	; 0x11ae <process_command+0xae>
    11ac:	64 c0       	rjmp	.+200    	; 0x1276 <process_command+0x176>
    11ae:	07 c0       	rjmp	.+14     	; 0x11be <process_command+0xbe>
			case RF_CMD_ABORT:
				police_off();
    11b0:	0e 94 86 03 	call	0x70c	; 0x70c <police_off>
			break;
    11b4:	60 c0       	rjmp	.+192    	; 0x1276 <process_command+0x176>

			case RF_CMD_POLICE:
			{
				uint8_t times = param[0];
				police_on(times);
    11b6:	8e 81       	ldd	r24, Y+6	; 0x06
    11b8:	0e 94 8d 03 	call	0x71a	; 0x71a <police_on>
			}
			break;
    11bc:	5c c0       	rjmp	.+184    	; 0x1276 <process_command+0x176>

			case RF_CMD_CAMERA:
				speed_camera();
    11be:	0e 94 62 04 	call	0x8c4	; 0x8c4 <speed_camera>
			break;
    11c2:	59 c0       	rjmp	.+178    	; 0x1276 <process_command+0x176>

			case RF_CMD_SETRTC:
			{
				while(rtc_busy); // sync
    11c4:	80 91 2a 01 	lds	r24, 0x012A	; 0x80012a <__data_end>
    11c8:	81 11       	cpse	r24, r1
    11ca:	fc cf       	rjmp	.-8      	; 0x11c4 <process_command+0xc4>

				TCCR2B = 0; // pause RTC...
    11cc:	10 92 b1 00 	sts	0x00B1, r1	; 0x8000b1 <__DATA_REGION_ORIGIN__+0x51>

				// get RTC from param 7 bytes - mind the byteorder
				memcpy((uint8_t *)&RTC, param, 7);
    11d0:	87 e0       	ldi	r24, 0x07	; 7
    11d2:	fe 01       	movw	r30, r28
    11d4:	36 96       	adiw	r30, 0x06	; 6
    11d6:	a0 e0       	ldi	r26, 0x00	; 0
    11d8:	b1 e0       	ldi	r27, 0x01	; 1
    11da:	01 90       	ld	r0, Z+
    11dc:	0d 92       	st	X+, r0
    11de:	8a 95       	dec	r24
    11e0:	e1 f7       	brne	.-8      	; 0x11da <process_command+0xda>

				set_rtc_speed(rtc_slow_mode); // resume RTC
    11e2:	80 91 33 01 	lds	r24, 0x0133	; 0x800133 <rtc_slow_mode>
    11e6:	0e 94 76 03 	call	0x6ec	; 0x6ec <set_rtc_speed>

				rtc_ok = 1;
    11ea:	81 e0       	ldi	r24, 0x01	; 1
    11ec:	80 93 3f 01 	sts	0x013F, r24	; 0x80013f <rtc_ok>
			}
			break;
    11f0:	42 c0       	rjmp	.+132    	; 0x1276 <process_command+0x176>

			case RF_CMD_NEWKEY:
			{
				// get new key from param 8 bytes - mind the byteorder
				memcpy((uint8_t *)&kl_master_crypt_key, param, 8);
    11f2:	7e 81       	ldd	r23, Y+6	; 0x06
    11f4:	6f 81       	ldd	r22, Y+7	; 0x07
    11f6:	58 85       	ldd	r21, Y+8	; 0x08
    11f8:	49 85       	ldd	r20, Y+9	; 0x09
    11fa:	3a 85       	ldd	r19, Y+10	; 0x0a
    11fc:	2b 85       	ldd	r18, Y+11	; 0x0b
    11fe:	9c 85       	ldd	r25, Y+12	; 0x0c
    1200:	8d 85       	ldd	r24, Y+13	; 0x0d
    1202:	e9 e4       	ldi	r30, 0x49	; 73
    1204:	f1 e0       	ldi	r31, 0x01	; 1
    1206:	70 83       	st	Z, r23
    1208:	61 83       	std	Z+1, r22	; 0x01
    120a:	52 83       	std	Z+2, r21	; 0x02
    120c:	43 83       	std	Z+3, r20	; 0x03
    120e:	34 83       	std	Z+4, r19	; 0x04
    1210:	25 83       	std	Z+5, r18	; 0x05
    1212:	96 83       	std	Z+6, r25	; 0x06
    1214:	87 83       	std	Z+7, r24	; 0x07

				update_kl_settings_to_eeprom();
    1216:	0e 94 9e 03 	call	0x73c	; 0x73c <update_kl_settings_to_eeprom>
			}
			break;
    121a:	2d c0       	rjmp	.+90     	; 0x1276 <process_command+0x176>

			case RF_CMD_GETTELE:
				send_telemetry();
    121c:	0e 94 b9 07 	call	0xf72	; 0xf72 <send_telemetry>
			break;
    1220:	2a c0       	rjmp	.+84     	; 0x1276 <process_command+0x176>
			}
		}
	}
	else {
		// maybe it is within the larger re-sync window?
		if(next_within_window(enc_rx_counter, kl_rx_counter_resync, 32767)) {
    1222:	60 91 47 01 	lds	r22, 0x0147	; 0x800147 <kl_rx_counter_resync>
    1226:	70 91 48 01 	lds	r23, 0x0148	; 0x800148 <kl_rx_counter_resync+0x1>
    122a:	4f ef       	ldi	r20, 0xFF	; 255
    122c:	5f e7       	ldi	r21, 0x7F	; 127
    122e:	c6 01       	movw	r24, r12
    1230:	0e 94 64 08 	call	0x10c8	; 0x10c8 <next_within_window>
    1234:	88 23       	and	r24, r24
    1236:	a1 f0       	breq	.+40     	; 0x1260 <process_command+0x160>
			// caught up?
			if(next_within_window(enc_rx_counter, kl_rx_counter_resync, 1)) {
    1238:	60 91 47 01 	lds	r22, 0x0147	; 0x800147 <kl_rx_counter_resync>
    123c:	70 91 48 01 	lds	r23, 0x0148	; 0x800148 <kl_rx_counter_resync+0x1>
    1240:	41 e0       	ldi	r20, 0x01	; 1
    1242:	50 e0       	ldi	r21, 0x00	; 0
    1244:	c6 01       	movw	r24, r12
    1246:	0e 94 64 08 	call	0x10c8	; 0x10c8 <next_within_window>
    124a:	88 23       	and	r24, r24
    124c:	21 f0       	breq	.+8      	; 0x1256 <process_command+0x156>
				kl_rx_counter = enc_rx_counter;
    124e:	d0 92 52 01 	sts	0x0152, r13	; 0x800152 <kl_rx_counter+0x1>
    1252:	c0 92 51 01 	sts	0x0151, r12	; 0x800151 <kl_rx_counter>
			}
			kl_rx_counter_resync = enc_rx_counter;
    1256:	d0 92 48 01 	sts	0x0148, r13	; 0x800148 <kl_rx_counter_resync+0x1>
    125a:	c0 92 47 01 	sts	0x0147, r12	; 0x800147 <kl_rx_counter_resync>
    125e:	05 c0       	rjmp	.+10     	; 0x126a <process_command+0x16a>
		}
		else {
			hacking_attempts_cnt++;
    1260:	80 91 3e 01 	lds	r24, 0x013E	; 0x80013e <hacking_attempts_cnt>
    1264:	8f 5f       	subi	r24, 0xFF	; 255
    1266:	80 93 3e 01 	sts	0x013E, r24	; 0x80013e <hacking_attempts_cnt>
		}

		// DEBUG
		setHigh(LED_RED_PORT, LED_RED_PIN);
    126a:	5d 9a       	sbi	0x0b, 5	; 11
		delay_builtin_ms_(500);
    126c:	84 ef       	ldi	r24, 0xF4	; 244
    126e:	91 e0       	ldi	r25, 0x01	; 1
    1270:	0e 94 57 04 	call	0x8ae	; 0x8ae <delay_builtin_ms_>
		setLow(LED_RED_PORT, LED_RED_PIN);
    1274:	5d 98       	cbi	0x0b, 5	; 11
	}

}
    1276:	df 91       	pop	r29
    1278:	cf 91       	pop	r28
    127a:	1f 91       	pop	r17
    127c:	0f 91       	pop	r16
    127e:	ff 90       	pop	r15
    1280:	ef 90       	pop	r14
    1282:	df 90       	pop	r13
    1284:	cf 90       	pop	r12
    1286:	08 95       	ret

00001288 <main>:
	// say eeprom is valid
	eeprom_update_byte((uint8_t *)EEPROM_MAGIC, EEPROM_MAGIC_VALUE);
}

int main(void)
{
    1288:	cf 93       	push	r28
    128a:	df 93       	push	r29
    128c:	cd b7       	in	r28, 0x3d	; 61
    128e:	de b7       	in	r29, 0x3e	; 62
    1290:	a5 97       	sbiw	r28, 0x25	; 37
    1292:	0f b6       	in	r0, 0x3f	; 63
    1294:	f8 94       	cli
    1296:	de bf       	out	0x3e, r29	; 62
    1298:	0f be       	out	0x3f, r0	; 63
    129a:	cd bf       	out	0x3d, r28	; 61
	// Misc hardware init
	// this turns off all outputs & leds
	misc_hw_init();
    129c:	0e 94 2f 04 	call	0x85e	; 0x85e <misc_hw_init>

	// UART init
	setInput(DDRD, 0);
    12a0:	50 98       	cbi	0x0a, 0	; 10
	setOutput(DDRD, 1);
    12a2:	51 9a       	sbi	0x0a, 1	; 10
	uart_init(calc_UBRR(19200));
    12a4:	89 e1       	ldi	r24, 0x19	; 25
    12a6:	0e 94 6a 03 	call	0x6d4	; 0x6d4 <uart_init>

	// read KEELOQ stuff from EEPROM
	// eeprom has some settings?
    if( eeprom_read_byte((uint8_t *)EEPROM_MAGIC) == EEPROM_MAGIC_VALUE) {
    12aa:	80 e0       	ldi	r24, 0x00	; 0
    12ac:	90 e0       	ldi	r25, 0x00	; 0
    12ae:	0e 94 e2 12 	call	0x25c4	; 0x25c4 <eeprom_read_byte>
    12b2:	8a 3a       	cpi	r24, 0xAA	; 170
    12b4:	c9 f4       	brne	.+50     	; 0x12e8 <main+0x60>
		eeprom_read_block((uint64_t *)&kl_master_crypt_key, (uint8_t *)EEPROM_MASTER_CRYPT_KEY, 8);
    12b6:	48 e0       	ldi	r20, 0x08	; 8
    12b8:	50 e0       	ldi	r21, 0x00	; 0
    12ba:	61 e0       	ldi	r22, 0x01	; 1
    12bc:	70 e0       	ldi	r23, 0x00	; 0
    12be:	89 e4       	ldi	r24, 0x49	; 73
    12c0:	91 e0       	ldi	r25, 0x01	; 1
    12c2:	0e 94 d2 12 	call	0x25a4	; 0x25a4 <eeprom_read_block>
		kl_rx_counter = eeprom_read_word((uint16_t *)EEPROM_RX_COUNTER);
    12c6:	89 e0       	ldi	r24, 0x09	; 9
    12c8:	90 e0       	ldi	r25, 0x00	; 0
    12ca:	0e 94 ea 12 	call	0x25d4	; 0x25d4 <eeprom_read_word>
    12ce:	90 93 52 01 	sts	0x0152, r25	; 0x800152 <kl_rx_counter+0x1>
    12d2:	80 93 51 01 	sts	0x0151, r24	; 0x800151 <kl_rx_counter>
		kl_tx_counter = eeprom_read_word((uint16_t *)EEPROM_TX_COUNTER);
    12d6:	8b e0       	ldi	r24, 0x0B	; 11
    12d8:	90 e0       	ldi	r25, 0x00	; 0
    12da:	0e 94 ea 12 	call	0x25d4	; 0x25d4 <eeprom_read_word>
    12de:	90 93 54 01 	sts	0x0154, r25	; 0x800154 <kl_tx_counter+0x1>
    12e2:	80 93 53 01 	sts	0x0153, r24	; 0x800153 <kl_tx_counter>
    12e6:	24 c0       	rjmp	.+72     	; 0x1330 <main+0xa8>
	}
	// nope, use defaults
	else {
		kl_master_crypt_key = DEFAULT_KEELOQ_CRYPT_KEY;
    12e8:	80 e9       	ldi	r24, 0x90	; 144
    12ea:	80 93 49 01 	sts	0x0149, r24	; 0x800149 <kl_master_crypt_key>
    12ee:	89 e8       	ldi	r24, 0x89	; 137
    12f0:	80 93 4a 01 	sts	0x014A, r24	; 0x80014a <kl_master_crypt_key+0x1>
    12f4:	88 e7       	ldi	r24, 0x78	; 120
    12f6:	80 93 4b 01 	sts	0x014B, r24	; 0x80014b <kl_master_crypt_key+0x2>
    12fa:	86 e5       	ldi	r24, 0x56	; 86
    12fc:	80 93 4c 01 	sts	0x014C, r24	; 0x80014c <kl_master_crypt_key+0x3>
    1300:	85 e4       	ldi	r24, 0x45	; 69
    1302:	80 93 4d 01 	sts	0x014D, r24	; 0x80014d <kl_master_crypt_key+0x4>
    1306:	84 e3       	ldi	r24, 0x34	; 52
    1308:	80 93 4e 01 	sts	0x014E, r24	; 0x80014e <kl_master_crypt_key+0x5>
    130c:	83 e2       	ldi	r24, 0x23	; 35
    130e:	80 93 4f 01 	sts	0x014F, r24	; 0x80014f <kl_master_crypt_key+0x6>
    1312:	82 e1       	ldi	r24, 0x12	; 18
    1314:	80 93 50 01 	sts	0x0150, r24	; 0x800150 <kl_master_crypt_key+0x7>
		kl_rx_counter = DEFAULT_KEELOQ_COUNTER;
    1318:	88 ee       	ldi	r24, 0xE8	; 232
    131a:	93 e0       	ldi	r25, 0x03	; 3
    131c:	90 93 52 01 	sts	0x0152, r25	; 0x800152 <kl_rx_counter+0x1>
    1320:	80 93 51 01 	sts	0x0151, r24	; 0x800151 <kl_rx_counter>
		kl_tx_counter = DEFAULT_KEELOQ_COUNTER;
    1324:	90 93 54 01 	sts	0x0154, r25	; 0x800154 <kl_tx_counter+0x1>
    1328:	80 93 53 01 	sts	0x0153, r24	; 0x800153 <kl_tx_counter>

		update_kl_settings_to_eeprom();
    132c:	0e 94 9e 03 	call	0x73c	; 0x73c <update_kl_settings_to_eeprom>
	}
	kl_rx_counter_resync = kl_rx_counter; // follow
    1330:	80 91 51 01 	lds	r24, 0x0151	; 0x800151 <kl_rx_counter>
    1334:	90 91 52 01 	lds	r25, 0x0152	; 0x800152 <kl_rx_counter+0x1>
    1338:	90 93 48 01 	sts	0x0148, r25	; 0x800148 <kl_rx_counter_resync+0x1>
    133c:	80 93 47 01 	sts	0x0147, r24	; 0x800147 <kl_rx_counter_resync>

	// Init the SPI port
	SPI_init();
    1340:	0e 94 5c 03 	call	0x6b8	; 0x6b8 <SPI_init>

	// nRF24L01 Init
	uint8_t my_rx_addr[5];
	my_rx_addr[0] = 77;
    1344:	8d e4       	ldi	r24, 0x4D	; 77
    1346:	89 83       	std	Y+1, r24	; 0x01
	my_rx_addr[1] = 66;
    1348:	82 e4       	ldi	r24, 0x42	; 66
    134a:	8a 83       	std	Y+2, r24	; 0x02
	my_rx_addr[2] = 44;
    134c:	8c e2       	ldi	r24, 0x2C	; 44
    134e:	8b 83       	std	Y+3, r24	; 0x03
	my_rx_addr[3] = 33;
    1350:	81 e2       	ldi	r24, 0x21	; 33
    1352:	8c 83       	std	Y+4, r24	; 0x04
	my_rx_addr[4] = 88;
    1354:	88 e5       	ldi	r24, 0x58	; 88
    1356:	8d 83       	std	Y+5, r24	; 0x05
	nrf24l01_init(DEFAULT_RF_CHANNEL);
    1358:	8e e0       	ldi	r24, 0x0E	; 14
    135a:	0e 94 ac 02 	call	0x558	; 0x558 <nrf24l01_init>
	nrf24l01_setrxaddr0(my_rx_addr);
    135e:	ce 01       	movw	r24, r28
    1360:	01 96       	adiw	r24, 0x01	; 1
    1362:	0e 94 5a 02 	call	0x4b4	; 0x4b4 <nrf24l01_setrxaddr0>
	nrf24l01_settxaddr(my_rx_addr);
    1366:	ce 01       	movw	r24, r28
    1368:	01 96       	adiw	r24, 0x01	; 1
    136a:	0e 94 60 02 	call	0x4c0	; 0x4c0 <nrf24l01_settxaddr>
	nrf24l01_setRX();
    136e:	0e 94 7c 02 	call	0x4f8	; 0x4f8 <nrf24l01_setRX>

	// Initialize Timer0 overflow ISR for 8.192ms interval, no need to go faster
	TCCR0A = 0;
    1372:	14 bc       	out	0x24, r1	; 36
	TCCR0B = _BV(CS12); // 1:256 prescaled, timer started!
    1374:	84 e0       	ldi	r24, 0x04	; 4
    1376:	85 bd       	out	0x25, r24	; 37
	TIMSK0 |= _BV(TOIE0); // for ISR(TIMER0_OVF_vect)
    1378:	ee e6       	ldi	r30, 0x6E	; 110
    137a:	f0 e0       	ldi	r31, 0x00	; 0
    137c:	80 81       	ld	r24, Z
    137e:	81 60       	ori	r24, 0x01	; 1
    1380:	80 83       	st	Z, r24

	// Initialize Timer2 as async RTC counter @ 1Hz with 32.768kHz crystal
	TCNT2 = 0;
    1382:	10 92 b2 00 	sts	0x00B2, r1	; 0x8000b2 <__DATA_REGION_ORIGIN__+0x52>
    TCCR2B |= (1<<CS22)|(1<<CS00); // 1 second by default
    1386:	e1 eb       	ldi	r30, 0xB1	; 177
    1388:	f0 e0       	ldi	r31, 0x00	; 0
    138a:	80 81       	ld	r24, Z
    138c:	85 60       	ori	r24, 0x05	; 5
    138e:	80 83       	st	Z, r24
    //Enable asynchronous mode
    ASSR  = (1<<AS2);
    1390:	80 e2       	ldi	r24, 0x20	; 32
    1392:	80 93 b6 00 	sts	0x00B6, r24	; 0x8000b6 <__DATA_REGION_ORIGIN__+0x56>
    //wait for registers update
    // while (ASSR & ((1<<TCN2UB)|(1<<TCR2BUB)));
    // enable overflow interrupt
	TIMSK2 |= (1 << TOIE2);
    1396:	e0 e7       	ldi	r30, 0x70	; 112
    1398:	f0 e0       	ldi	r31, 0x00	; 0
    139a:	80 81       	ld	r24, Z
    139c:	81 60       	ori	r24, 0x01	; 1
    139e:	80 83       	st	Z, r24

	// Interrupts ON
	sei();
    13a0:	78 94       	sei

	delay_builtin_ms_(50);
    13a2:	82 e3       	ldi	r24, 0x32	; 50
    13a4:	90 e0       	ldi	r25, 0x00	; 0
    13a6:	0e 94 57 04 	call	0x8ae	; 0x8ae <delay_builtin_ms_>
    13aa:	13 e0       	ldi	r17, 0x03	; 3

	// DEBUGGING
	#ifdef DEBUG
	for(uint8_t i=0; i<3; i++) {
		setHigh(LED_BLUE_PORT, LED_BLUE_PIN);
    13ac:	5e 9a       	sbi	0x0b, 6	; 11
		setHigh(LED_RED_PORT, LED_RED_PIN);
    13ae:	5d 9a       	sbi	0x0b, 5	; 11
		delay_builtin_ms_(100);
    13b0:	84 e6       	ldi	r24, 0x64	; 100
    13b2:	90 e0       	ldi	r25, 0x00	; 0
    13b4:	0e 94 57 04 	call	0x8ae	; 0x8ae <delay_builtin_ms_>
		setLow(LED_BLUE_PORT, LED_BLUE_PIN);
    13b8:	5e 98       	cbi	0x0b, 6	; 11
		setLow(LED_RED_PORT, LED_RED_PIN);
    13ba:	5d 98       	cbi	0x0b, 5	; 11
		delay_builtin_ms_(100);
    13bc:	84 e6       	ldi	r24, 0x64	; 100
    13be:	90 e0       	ldi	r25, 0x00	; 0
    13c0:	0e 94 57 04 	call	0x8ae	; 0x8ae <delay_builtin_ms_>
    13c4:	11 50       	subi	r17, 0x01	; 1

	delay_builtin_ms_(50);

	// DEBUGGING
	#ifdef DEBUG
	for(uint8_t i=0; i<3; i++) {
    13c6:	91 f7       	brne	.-28     	; 0x13ac <main+0x124>
		delay_builtin_ms_(100);
		setLow(LED_BLUE_PORT, LED_BLUE_PIN);
		setLow(LED_RED_PORT, LED_RED_PIN);
		delay_builtin_ms_(100);
	}
	delay_builtin_ms_(200);
    13c8:	88 ec       	ldi	r24, 0xC8	; 200
    13ca:	90 e0       	ldi	r25, 0x00	; 0
    13cc:	0e 94 57 04 	call	0x8ae	; 0x8ae <delay_builtin_ms_>
	#endif

	// I figured that there is no point in waking up every 1s
	// so I am fixing it to 8 sec wakeup interval
	set_rtc_speed(1); // 8-sec RTC
    13d0:	81 e0       	ldi	r24, 0x01	; 1
    13d2:	0e 94 76 03 	call	0x6ec	; 0x6ec <set_rtc_speed>
				}
				else {
					//set_rtc_speed(1); // 8-sec RTC
				}
				
				telemetry_timer_min = TELEMETRY_MINUTES; // reload for next time
    13d6:	0f 2e       	mov	r0, r31
    13d8:	f3 e0       	ldi	r31, 0x03	; 3
    13da:	cf 2e       	mov	r12, r31
    13dc:	d1 2c       	mov	r13, r1
    13de:	e1 2c       	mov	r14, r1
    13e0:	f1 2c       	mov	r15, r1
    13e2:	f0 2d       	mov	r31, r0
		- Battery charge indicator = send telemetry and go back to 1.
		- IRQ from nRF radio = process command and go back to 1.
		*/

		// OK to sleep?
		if(!police_lights_count) {
    13e4:	80 91 3d 01 	lds	r24, 0x013D	; 0x80013d <police_lights_count>
    13e8:	81 11       	cpse	r24, r1
    13ea:	21 c0       	rjmp	.+66     	; 0x142e <main+0x1a6>
			// make sure these are OFF during sleep so that we don't end up dead
			setLow(LED_RED_PORT, LED_RED_PIN);
    13ec:	5d 98       	cbi	0x0b, 5	; 11
			setLow(LED_BLUE_PORT, LED_BLUE_PIN);
    13ee:	5e 98       	cbi	0x0b, 6	; 11

			#ifdef DEBUG
			setHigh(LED_BLUE_PORT, LED_BLUE_PIN);
    13f0:	5e 9a       	sbi	0x0b, 6	; 11
			delay_builtin_ms_(50);
    13f2:	82 e3       	ldi	r24, 0x32	; 50
    13f4:	90 e0       	ldi	r25, 0x00	; 0
    13f6:	0e 94 57 04 	call	0x8ae	; 0x8ae <delay_builtin_ms_>
			setLow(LED_BLUE_PORT, LED_BLUE_PIN);
    13fa:	5e 98       	cbi	0x0b, 6	; 11
			delay_builtin_ms_(50);
    13fc:	82 e3       	ldi	r24, 0x32	; 50
    13fe:	90 e0       	ldi	r25, 0x00	; 0
    1400:	0e 94 57 04 	call	0x8ae	; 0x8ae <delay_builtin_ms_>
			#endif

			// configure sleep mode
			set_sleep_mode(SLEEP_MODE_PWR_SAVE);
    1404:	83 b7       	in	r24, 0x33	; 51
    1406:	81 7f       	andi	r24, 0xF1	; 241
    1408:	86 60       	ori	r24, 0x06	; 6
    140a:	83 bf       	out	0x33, r24	; 51

			// go to sleep
			sleep_mode(); // zzzZZZzzzZZZzzzZZZzzz
    140c:	83 b7       	in	r24, 0x33	; 51
    140e:	81 60       	ori	r24, 0x01	; 1
    1410:	83 bf       	out	0x33, r24	; 51
    1412:	88 95       	sleep
    1414:	83 b7       	in	r24, 0x33	; 51
    1416:	8e 7f       	andi	r24, 0xFE	; 254
    1418:	83 bf       	out	0x33, r24	; 51

			// WOKEN UP!

			#ifdef DEBUG
			setHigh(LED_BLUE_PORT, LED_BLUE_PIN);
    141a:	5e 9a       	sbi	0x0b, 6	; 11
			delay_builtin_ms_(50);
    141c:	82 e3       	ldi	r24, 0x32	; 50
    141e:	90 e0       	ldi	r25, 0x00	; 0
    1420:	0e 94 57 04 	call	0x8ae	; 0x8ae <delay_builtin_ms_>
			setLow(LED_BLUE_PORT, LED_BLUE_PIN);
    1424:	5e 98       	cbi	0x0b, 6	; 11
			delay_builtin_ms_(50);
    1426:	82 e3       	ldi	r24, 0x32	; 50
    1428:	90 e0       	ldi	r25, 0x00	; 0
    142a:	0e 94 57 04 	call	0x8ae	; 0x8ae <delay_builtin_ms_>
		}

		// (some interrupt happens) and we get into the ISR() of it... after it finishes, we continue here:

		// did charge event happen?
		if(charge_event) {
    142e:	80 91 46 01 	lds	r24, 0x0146	; 0x800146 <charge_event>
    1432:	88 23       	and	r24, r24
    1434:	71 f0       	breq	.+28     	; 0x1452 <main+0x1ca>

			// NOTE: THIS HAS BEEN DISABLED IN MCU INITIALIZATION
			// THIS EVENT WILL NEVER HAPPEN

			// charging
			if( !(BATT_CHRG_PINREG & _BV(BATT_CHRG_PIN)) ) {
    1436:	33 9b       	sbis	0x06, 3	; 6
    1438:	08 c0       	rjmp	.+16     	; 0x144a <main+0x1c2>
				//set_rtc_speed(0); // 1-sec RTC
			}
			// not charging (anymore)
			else {
				charging_time_sec = 0;
    143a:	10 92 40 01 	sts	0x0140, r1	; 0x800140 <charging_time_sec>
    143e:	10 92 41 01 	sts	0x0141, r1	; 0x800141 <charging_time_sec+0x1>
    1442:	10 92 42 01 	sts	0x0142, r1	; 0x800142 <charging_time_sec+0x2>
    1446:	10 92 43 01 	sts	0x0143, r1	; 0x800143 <charging_time_sec+0x3>
			}

			send_telemetry();
    144a:	0e 94 b9 07 	call	0xf72	; 0xf72 <send_telemetry>

			charge_event = 0;  // handled
    144e:	10 92 46 01 	sts	0x0146, r1	; 0x800146 <charge_event>
		}

		// did radio packet arrive?
		if(radio_event) {
    1452:	80 91 45 01 	lds	r24, 0x0145	; 0x800145 <radio_event>
    1456:	88 23       	and	r24, r24
    1458:	b1 f0       	breq	.+44     	; 0x1486 <main+0x1fe>

			// verify that RF packet arrived and process it
			if( nrf24l01_irq_rx_dr() )
    145a:	0e 94 41 03 	call	0x682	; 0x682 <nrf24l01_irq_rx_dr>
    145e:	81 11       	cpse	r24, r1
    1460:	0b c0       	rjmp	.+22     	; 0x1478 <main+0x1f0>
    1462:	0f c0       	rjmp	.+30     	; 0x1482 <main+0x1fa>
			{
				while( !( nrf24l01_readregister(NRF24L01_REG_FIFO_STATUS) & NRF24L01_REG_RX_EMPTY) )
				{
					uint8_t rx_buff[32];

					nrf24l01_read(rx_buff);
    1464:	ce 01       	movw	r24, r28
    1466:	06 96       	adiw	r24, 0x06	; 6
    1468:	0e 94 04 03 	call	0x608	; 0x608 <nrf24l01_read>
					nrf24l01_irq_clear_rx_dr();
    146c:	0e 94 4d 03 	call	0x69a	; 0x69a <nrf24l01_irq_clear_rx_dr>

					process_command(rx_buff);
    1470:	ce 01       	movw	r24, r28
    1472:	06 96       	adiw	r24, 0x06	; 6
    1474:	0e 94 80 08 	call	0x1100	; 0x1100 <process_command>
		if(radio_event) {

			// verify that RF packet arrived and process it
			if( nrf24l01_irq_rx_dr() )
			{
				while( !( nrf24l01_readregister(NRF24L01_REG_FIFO_STATUS) & NRF24L01_REG_RX_EMPTY) )
    1478:	87 e1       	ldi	r24, 0x17	; 23
    147a:	0e 94 1f 02 	call	0x43e	; 0x43e <nrf24l01_readregister>
    147e:	80 ff       	sbrs	r24, 0
    1480:	f1 cf       	rjmp	.-30     	; 0x1464 <main+0x1dc>

					process_command(rx_buff);
				}
			}

			radio_event = 0; // handled
    1482:	10 92 45 01 	sts	0x0145, r1	; 0x800145 <radio_event>
		}

		// RTC has woken us up? every 1 or 8 seconds depending on situation
		if(rtc_event) {
    1486:	80 91 44 01 	lds	r24, 0x0144	; 0x800144 <rtc_event>
    148a:	88 23       	and	r24, r24
    148c:	09 f4       	brne	.+2      	; 0x1490 <main+0x208>
    148e:	aa cf       	rjmp	.-172    	; 0x13e4 <main+0x15c>
			/*setHigh(LED_RED_PORT, LED_RED_PIN);
			delay_builtin_ms_(60);
			setLow(LED_RED_PORT, LED_RED_PIN);*/

			// send telemetry if it is time and if solar voltage is good
			if(!telemetry_timer_min) {
    1490:	80 91 34 01 	lds	r24, 0x0134	; 0x800134 <telemetry_timer_min>
    1494:	90 91 35 01 	lds	r25, 0x0135	; 0x800135 <telemetry_timer_min+0x1>
    1498:	a0 91 36 01 	lds	r26, 0x0136	; 0x800136 <telemetry_timer_min+0x2>
    149c:	b0 91 37 01 	lds	r27, 0x0137	; 0x800137 <telemetry_timer_min+0x3>
    14a0:	89 2b       	or	r24, r25
    14a2:	8a 2b       	or	r24, r26
    14a4:	8b 2b       	or	r24, r27
    14a6:	a1 f4       	brne	.+40     	; 0x14d0 <main+0x248>
				if(read_solar_volt() >= LOWEST_SOLVOLT_GOOD) {
    14a8:	0e 94 7e 07 	call	0xefc	; 0xefc <read_solar_volt>
    14ac:	20 e0       	ldi	r18, 0x00	; 0
    14ae:	30 e4       	ldi	r19, 0x40	; 64
    14b0:	4c e1       	ldi	r20, 0x1C	; 28
    14b2:	55 e4       	ldi	r21, 0x45	; 69
    14b4:	0e 94 02 0c 	call	0x1804	; 0x1804 <__gesf2>
    14b8:	88 23       	and	r24, r24
    14ba:	14 f0       	brlt	.+4      	; 0x14c0 <main+0x238>
					send_telemetry();
    14bc:	0e 94 b9 07 	call	0xf72	; 0xf72 <send_telemetry>
				}
				else {
					//set_rtc_speed(1); // 8-sec RTC
				}
				
				telemetry_timer_min = TELEMETRY_MINUTES; // reload for next time
    14c0:	c0 92 34 01 	sts	0x0134, r12	; 0x800134 <telemetry_timer_min>
    14c4:	d0 92 35 01 	sts	0x0135, r13	; 0x800135 <telemetry_timer_min+0x1>
    14c8:	e0 92 36 01 	sts	0x0136, r14	; 0x800136 <telemetry_timer_min+0x2>
    14cc:	f0 92 37 01 	sts	0x0137, r15	; 0x800137 <telemetry_timer_min+0x3>
			}

			rtc_event = 0; // handled
    14d0:	10 92 44 01 	sts	0x0144, r1	; 0x800144 <rtc_event>
    14d4:	87 cf       	rjmp	.-242    	; 0x13e4 <main+0x15c>

000014d6 <__subsf3>:
    14d6:	50 58       	subi	r21, 0x80	; 128

000014d8 <__addsf3>:
    14d8:	bb 27       	eor	r27, r27
    14da:	aa 27       	eor	r26, r26
    14dc:	0e 94 83 0a 	call	0x1506	; 0x1506 <__addsf3x>
    14e0:	0c 94 c8 0b 	jmp	0x1790	; 0x1790 <__fp_round>
    14e4:	0e 94 ba 0b 	call	0x1774	; 0x1774 <__fp_pscA>
    14e8:	38 f0       	brcs	.+14     	; 0x14f8 <__addsf3+0x20>
    14ea:	0e 94 c1 0b 	call	0x1782	; 0x1782 <__fp_pscB>
    14ee:	20 f0       	brcs	.+8      	; 0x14f8 <__addsf3+0x20>
    14f0:	39 f4       	brne	.+14     	; 0x1500 <__addsf3+0x28>
    14f2:	9f 3f       	cpi	r25, 0xFF	; 255
    14f4:	19 f4       	brne	.+6      	; 0x14fc <__addsf3+0x24>
    14f6:	26 f4       	brtc	.+8      	; 0x1500 <__addsf3+0x28>
    14f8:	0c 94 b7 0b 	jmp	0x176e	; 0x176e <__fp_nan>
    14fc:	0e f4       	brtc	.+2      	; 0x1500 <__addsf3+0x28>
    14fe:	e0 95       	com	r30
    1500:	e7 fb       	bst	r30, 7
    1502:	0c 94 b1 0b 	jmp	0x1762	; 0x1762 <__fp_inf>

00001506 <__addsf3x>:
    1506:	e9 2f       	mov	r30, r25
    1508:	0e 94 d9 0b 	call	0x17b2	; 0x17b2 <__fp_split3>
    150c:	58 f3       	brcs	.-42     	; 0x14e4 <__addsf3+0xc>
    150e:	ba 17       	cp	r27, r26
    1510:	62 07       	cpc	r22, r18
    1512:	73 07       	cpc	r23, r19
    1514:	84 07       	cpc	r24, r20
    1516:	95 07       	cpc	r25, r21
    1518:	20 f0       	brcs	.+8      	; 0x1522 <__addsf3x+0x1c>
    151a:	79 f4       	brne	.+30     	; 0x153a <__addsf3x+0x34>
    151c:	a6 f5       	brtc	.+104    	; 0x1586 <__addsf3x+0x80>
    151e:	0c 94 fb 0b 	jmp	0x17f6	; 0x17f6 <__fp_zero>
    1522:	0e f4       	brtc	.+2      	; 0x1526 <__addsf3x+0x20>
    1524:	e0 95       	com	r30
    1526:	0b 2e       	mov	r0, r27
    1528:	ba 2f       	mov	r27, r26
    152a:	a0 2d       	mov	r26, r0
    152c:	0b 01       	movw	r0, r22
    152e:	b9 01       	movw	r22, r18
    1530:	90 01       	movw	r18, r0
    1532:	0c 01       	movw	r0, r24
    1534:	ca 01       	movw	r24, r20
    1536:	a0 01       	movw	r20, r0
    1538:	11 24       	eor	r1, r1
    153a:	ff 27       	eor	r31, r31
    153c:	59 1b       	sub	r21, r25
    153e:	99 f0       	breq	.+38     	; 0x1566 <__addsf3x+0x60>
    1540:	59 3f       	cpi	r21, 0xF9	; 249
    1542:	50 f4       	brcc	.+20     	; 0x1558 <__addsf3x+0x52>
    1544:	50 3e       	cpi	r21, 0xE0	; 224
    1546:	68 f1       	brcs	.+90     	; 0x15a2 <__addsf3x+0x9c>
    1548:	1a 16       	cp	r1, r26
    154a:	f0 40       	sbci	r31, 0x00	; 0
    154c:	a2 2f       	mov	r26, r18
    154e:	23 2f       	mov	r18, r19
    1550:	34 2f       	mov	r19, r20
    1552:	44 27       	eor	r20, r20
    1554:	58 5f       	subi	r21, 0xF8	; 248
    1556:	f3 cf       	rjmp	.-26     	; 0x153e <__addsf3x+0x38>
    1558:	46 95       	lsr	r20
    155a:	37 95       	ror	r19
    155c:	27 95       	ror	r18
    155e:	a7 95       	ror	r26
    1560:	f0 40       	sbci	r31, 0x00	; 0
    1562:	53 95       	inc	r21
    1564:	c9 f7       	brne	.-14     	; 0x1558 <__addsf3x+0x52>
    1566:	7e f4       	brtc	.+30     	; 0x1586 <__addsf3x+0x80>
    1568:	1f 16       	cp	r1, r31
    156a:	ba 0b       	sbc	r27, r26
    156c:	62 0b       	sbc	r22, r18
    156e:	73 0b       	sbc	r23, r19
    1570:	84 0b       	sbc	r24, r20
    1572:	ba f0       	brmi	.+46     	; 0x15a2 <__addsf3x+0x9c>
    1574:	91 50       	subi	r25, 0x01	; 1
    1576:	a1 f0       	breq	.+40     	; 0x15a0 <__addsf3x+0x9a>
    1578:	ff 0f       	add	r31, r31
    157a:	bb 1f       	adc	r27, r27
    157c:	66 1f       	adc	r22, r22
    157e:	77 1f       	adc	r23, r23
    1580:	88 1f       	adc	r24, r24
    1582:	c2 f7       	brpl	.-16     	; 0x1574 <__addsf3x+0x6e>
    1584:	0e c0       	rjmp	.+28     	; 0x15a2 <__addsf3x+0x9c>
    1586:	ba 0f       	add	r27, r26
    1588:	62 1f       	adc	r22, r18
    158a:	73 1f       	adc	r23, r19
    158c:	84 1f       	adc	r24, r20
    158e:	48 f4       	brcc	.+18     	; 0x15a2 <__addsf3x+0x9c>
    1590:	87 95       	ror	r24
    1592:	77 95       	ror	r23
    1594:	67 95       	ror	r22
    1596:	b7 95       	ror	r27
    1598:	f7 95       	ror	r31
    159a:	9e 3f       	cpi	r25, 0xFE	; 254
    159c:	08 f0       	brcs	.+2      	; 0x15a0 <__addsf3x+0x9a>
    159e:	b0 cf       	rjmp	.-160    	; 0x1500 <__addsf3+0x28>
    15a0:	93 95       	inc	r25
    15a2:	88 0f       	add	r24, r24
    15a4:	08 f0       	brcs	.+2      	; 0x15a8 <__addsf3x+0xa2>
    15a6:	99 27       	eor	r25, r25
    15a8:	ee 0f       	add	r30, r30
    15aa:	97 95       	ror	r25
    15ac:	87 95       	ror	r24
    15ae:	08 95       	ret

000015b0 <__cmpsf2>:
    15b0:	0e 94 8d 0b 	call	0x171a	; 0x171a <__fp_cmp>
    15b4:	08 f4       	brcc	.+2      	; 0x15b8 <__cmpsf2+0x8>
    15b6:	81 e0       	ldi	r24, 0x01	; 1
    15b8:	08 95       	ret

000015ba <__divsf3>:
    15ba:	0e 94 f1 0a 	call	0x15e2	; 0x15e2 <__divsf3x>
    15be:	0c 94 c8 0b 	jmp	0x1790	; 0x1790 <__fp_round>
    15c2:	0e 94 c1 0b 	call	0x1782	; 0x1782 <__fp_pscB>
    15c6:	58 f0       	brcs	.+22     	; 0x15de <__divsf3+0x24>
    15c8:	0e 94 ba 0b 	call	0x1774	; 0x1774 <__fp_pscA>
    15cc:	40 f0       	brcs	.+16     	; 0x15de <__divsf3+0x24>
    15ce:	29 f4       	brne	.+10     	; 0x15da <__divsf3+0x20>
    15d0:	5f 3f       	cpi	r21, 0xFF	; 255
    15d2:	29 f0       	breq	.+10     	; 0x15de <__divsf3+0x24>
    15d4:	0c 94 b1 0b 	jmp	0x1762	; 0x1762 <__fp_inf>
    15d8:	51 11       	cpse	r21, r1
    15da:	0c 94 fc 0b 	jmp	0x17f8	; 0x17f8 <__fp_szero>
    15de:	0c 94 b7 0b 	jmp	0x176e	; 0x176e <__fp_nan>

000015e2 <__divsf3x>:
    15e2:	0e 94 d9 0b 	call	0x17b2	; 0x17b2 <__fp_split3>
    15e6:	68 f3       	brcs	.-38     	; 0x15c2 <__divsf3+0x8>

000015e8 <__divsf3_pse>:
    15e8:	99 23       	and	r25, r25
    15ea:	b1 f3       	breq	.-20     	; 0x15d8 <__divsf3+0x1e>
    15ec:	55 23       	and	r21, r21
    15ee:	91 f3       	breq	.-28     	; 0x15d4 <__divsf3+0x1a>
    15f0:	95 1b       	sub	r25, r21
    15f2:	55 0b       	sbc	r21, r21
    15f4:	bb 27       	eor	r27, r27
    15f6:	aa 27       	eor	r26, r26
    15f8:	62 17       	cp	r22, r18
    15fa:	73 07       	cpc	r23, r19
    15fc:	84 07       	cpc	r24, r20
    15fe:	38 f0       	brcs	.+14     	; 0x160e <__divsf3_pse+0x26>
    1600:	9f 5f       	subi	r25, 0xFF	; 255
    1602:	5f 4f       	sbci	r21, 0xFF	; 255
    1604:	22 0f       	add	r18, r18
    1606:	33 1f       	adc	r19, r19
    1608:	44 1f       	adc	r20, r20
    160a:	aa 1f       	adc	r26, r26
    160c:	a9 f3       	breq	.-22     	; 0x15f8 <__divsf3_pse+0x10>
    160e:	35 d0       	rcall	.+106    	; 0x167a <__divsf3_pse+0x92>
    1610:	0e 2e       	mov	r0, r30
    1612:	3a f0       	brmi	.+14     	; 0x1622 <__divsf3_pse+0x3a>
    1614:	e0 e8       	ldi	r30, 0x80	; 128
    1616:	32 d0       	rcall	.+100    	; 0x167c <__divsf3_pse+0x94>
    1618:	91 50       	subi	r25, 0x01	; 1
    161a:	50 40       	sbci	r21, 0x00	; 0
    161c:	e6 95       	lsr	r30
    161e:	00 1c       	adc	r0, r0
    1620:	ca f7       	brpl	.-14     	; 0x1614 <__divsf3_pse+0x2c>
    1622:	2b d0       	rcall	.+86     	; 0x167a <__divsf3_pse+0x92>
    1624:	fe 2f       	mov	r31, r30
    1626:	29 d0       	rcall	.+82     	; 0x167a <__divsf3_pse+0x92>
    1628:	66 0f       	add	r22, r22
    162a:	77 1f       	adc	r23, r23
    162c:	88 1f       	adc	r24, r24
    162e:	bb 1f       	adc	r27, r27
    1630:	26 17       	cp	r18, r22
    1632:	37 07       	cpc	r19, r23
    1634:	48 07       	cpc	r20, r24
    1636:	ab 07       	cpc	r26, r27
    1638:	b0 e8       	ldi	r27, 0x80	; 128
    163a:	09 f0       	breq	.+2      	; 0x163e <__divsf3_pse+0x56>
    163c:	bb 0b       	sbc	r27, r27
    163e:	80 2d       	mov	r24, r0
    1640:	bf 01       	movw	r22, r30
    1642:	ff 27       	eor	r31, r31
    1644:	93 58       	subi	r25, 0x83	; 131
    1646:	5f 4f       	sbci	r21, 0xFF	; 255
    1648:	3a f0       	brmi	.+14     	; 0x1658 <__divsf3_pse+0x70>
    164a:	9e 3f       	cpi	r25, 0xFE	; 254
    164c:	51 05       	cpc	r21, r1
    164e:	78 f0       	brcs	.+30     	; 0x166e <__divsf3_pse+0x86>
    1650:	0c 94 b1 0b 	jmp	0x1762	; 0x1762 <__fp_inf>
    1654:	0c 94 fc 0b 	jmp	0x17f8	; 0x17f8 <__fp_szero>
    1658:	5f 3f       	cpi	r21, 0xFF	; 255
    165a:	e4 f3       	brlt	.-8      	; 0x1654 <__divsf3_pse+0x6c>
    165c:	98 3e       	cpi	r25, 0xE8	; 232
    165e:	d4 f3       	brlt	.-12     	; 0x1654 <__divsf3_pse+0x6c>
    1660:	86 95       	lsr	r24
    1662:	77 95       	ror	r23
    1664:	67 95       	ror	r22
    1666:	b7 95       	ror	r27
    1668:	f7 95       	ror	r31
    166a:	9f 5f       	subi	r25, 0xFF	; 255
    166c:	c9 f7       	brne	.-14     	; 0x1660 <__divsf3_pse+0x78>
    166e:	88 0f       	add	r24, r24
    1670:	91 1d       	adc	r25, r1
    1672:	96 95       	lsr	r25
    1674:	87 95       	ror	r24
    1676:	97 f9       	bld	r25, 7
    1678:	08 95       	ret
    167a:	e1 e0       	ldi	r30, 0x01	; 1
    167c:	66 0f       	add	r22, r22
    167e:	77 1f       	adc	r23, r23
    1680:	88 1f       	adc	r24, r24
    1682:	bb 1f       	adc	r27, r27
    1684:	62 17       	cp	r22, r18
    1686:	73 07       	cpc	r23, r19
    1688:	84 07       	cpc	r24, r20
    168a:	ba 07       	cpc	r27, r26
    168c:	20 f0       	brcs	.+8      	; 0x1696 <__divsf3_pse+0xae>
    168e:	62 1b       	sub	r22, r18
    1690:	73 0b       	sbc	r23, r19
    1692:	84 0b       	sbc	r24, r20
    1694:	ba 0b       	sbc	r27, r26
    1696:	ee 1f       	adc	r30, r30
    1698:	88 f7       	brcc	.-30     	; 0x167c <__divsf3_pse+0x94>
    169a:	e0 95       	com	r30
    169c:	08 95       	ret

0000169e <__floatundisf>:
    169e:	e8 94       	clt

000016a0 <__fp_di2sf>:
    16a0:	f9 2f       	mov	r31, r25
    16a2:	96 eb       	ldi	r25, 0xB6	; 182
    16a4:	ff 23       	and	r31, r31
    16a6:	81 f0       	breq	.+32     	; 0x16c8 <__fp_di2sf+0x28>
    16a8:	12 16       	cp	r1, r18
    16aa:	13 06       	cpc	r1, r19
    16ac:	14 06       	cpc	r1, r20
    16ae:	44 0b       	sbc	r20, r20
    16b0:	93 95       	inc	r25
    16b2:	f6 95       	lsr	r31
    16b4:	87 95       	ror	r24
    16b6:	77 95       	ror	r23
    16b8:	67 95       	ror	r22
    16ba:	57 95       	ror	r21
    16bc:	40 40       	sbci	r20, 0x00	; 0
    16be:	ff 23       	and	r31, r31
    16c0:	b9 f7       	brne	.-18     	; 0x16b0 <__fp_di2sf+0x10>
    16c2:	1b c0       	rjmp	.+54     	; 0x16fa <__fp_di2sf+0x5a>
    16c4:	99 27       	eor	r25, r25
    16c6:	08 95       	ret
    16c8:	88 23       	and	r24, r24
    16ca:	51 f4       	brne	.+20     	; 0x16e0 <__fp_di2sf+0x40>
    16cc:	98 50       	subi	r25, 0x08	; 8
    16ce:	d2 f7       	brpl	.-12     	; 0x16c4 <__fp_di2sf+0x24>
    16d0:	87 2b       	or	r24, r23
    16d2:	76 2f       	mov	r23, r22
    16d4:	65 2f       	mov	r22, r21
    16d6:	54 2f       	mov	r21, r20
    16d8:	43 2f       	mov	r20, r19
    16da:	32 2f       	mov	r19, r18
    16dc:	20 e0       	ldi	r18, 0x00	; 0
    16de:	b1 f3       	breq	.-20     	; 0x16cc <__fp_di2sf+0x2c>
    16e0:	12 16       	cp	r1, r18
    16e2:	13 06       	cpc	r1, r19
    16e4:	14 06       	cpc	r1, r20
    16e6:	44 0b       	sbc	r20, r20
    16e8:	88 23       	and	r24, r24
    16ea:	3a f0       	brmi	.+14     	; 0x16fa <__fp_di2sf+0x5a>
    16ec:	9a 95       	dec	r25
    16ee:	44 0f       	add	r20, r20
    16f0:	55 1f       	adc	r21, r21
    16f2:	66 1f       	adc	r22, r22
    16f4:	77 1f       	adc	r23, r23
    16f6:	88 1f       	adc	r24, r24
    16f8:	ca f7       	brpl	.-14     	; 0x16ec <__fp_di2sf+0x4c>
    16fa:	55 23       	and	r21, r21
    16fc:	4a f4       	brpl	.+18     	; 0x1710 <__fp_di2sf+0x70>
    16fe:	44 0f       	add	r20, r20
    1700:	55 1f       	adc	r21, r21
    1702:	11 f4       	brne	.+4      	; 0x1708 <__fp_di2sf+0x68>
    1704:	60 ff       	sbrs	r22, 0
    1706:	04 c0       	rjmp	.+8      	; 0x1710 <__fp_di2sf+0x70>
    1708:	6f 5f       	subi	r22, 0xFF	; 255
    170a:	7f 4f       	sbci	r23, 0xFF	; 255
    170c:	8f 4f       	sbci	r24, 0xFF	; 255
    170e:	9f 4f       	sbci	r25, 0xFF	; 255
    1710:	88 0f       	add	r24, r24
    1712:	96 95       	lsr	r25
    1714:	87 95       	ror	r24
    1716:	97 f9       	bld	r25, 7
    1718:	08 95       	ret

0000171a <__fp_cmp>:
    171a:	99 0f       	add	r25, r25
    171c:	00 08       	sbc	r0, r0
    171e:	55 0f       	add	r21, r21
    1720:	aa 0b       	sbc	r26, r26
    1722:	e0 e8       	ldi	r30, 0x80	; 128
    1724:	fe ef       	ldi	r31, 0xFE	; 254
    1726:	16 16       	cp	r1, r22
    1728:	17 06       	cpc	r1, r23
    172a:	e8 07       	cpc	r30, r24
    172c:	f9 07       	cpc	r31, r25
    172e:	c0 f0       	brcs	.+48     	; 0x1760 <__fp_cmp+0x46>
    1730:	12 16       	cp	r1, r18
    1732:	13 06       	cpc	r1, r19
    1734:	e4 07       	cpc	r30, r20
    1736:	f5 07       	cpc	r31, r21
    1738:	98 f0       	brcs	.+38     	; 0x1760 <__fp_cmp+0x46>
    173a:	62 1b       	sub	r22, r18
    173c:	73 0b       	sbc	r23, r19
    173e:	84 0b       	sbc	r24, r20
    1740:	95 0b       	sbc	r25, r21
    1742:	39 f4       	brne	.+14     	; 0x1752 <__fp_cmp+0x38>
    1744:	0a 26       	eor	r0, r26
    1746:	61 f0       	breq	.+24     	; 0x1760 <__fp_cmp+0x46>
    1748:	23 2b       	or	r18, r19
    174a:	24 2b       	or	r18, r20
    174c:	25 2b       	or	r18, r21
    174e:	21 f4       	brne	.+8      	; 0x1758 <__fp_cmp+0x3e>
    1750:	08 95       	ret
    1752:	0a 26       	eor	r0, r26
    1754:	09 f4       	brne	.+2      	; 0x1758 <__fp_cmp+0x3e>
    1756:	a1 40       	sbci	r26, 0x01	; 1
    1758:	a6 95       	lsr	r26
    175a:	8f ef       	ldi	r24, 0xFF	; 255
    175c:	81 1d       	adc	r24, r1
    175e:	81 1d       	adc	r24, r1
    1760:	08 95       	ret

00001762 <__fp_inf>:
    1762:	97 f9       	bld	r25, 7
    1764:	9f 67       	ori	r25, 0x7F	; 127
    1766:	80 e8       	ldi	r24, 0x80	; 128
    1768:	70 e0       	ldi	r23, 0x00	; 0
    176a:	60 e0       	ldi	r22, 0x00	; 0
    176c:	08 95       	ret

0000176e <__fp_nan>:
    176e:	9f ef       	ldi	r25, 0xFF	; 255
    1770:	80 ec       	ldi	r24, 0xC0	; 192
    1772:	08 95       	ret

00001774 <__fp_pscA>:
    1774:	00 24       	eor	r0, r0
    1776:	0a 94       	dec	r0
    1778:	16 16       	cp	r1, r22
    177a:	17 06       	cpc	r1, r23
    177c:	18 06       	cpc	r1, r24
    177e:	09 06       	cpc	r0, r25
    1780:	08 95       	ret

00001782 <__fp_pscB>:
    1782:	00 24       	eor	r0, r0
    1784:	0a 94       	dec	r0
    1786:	12 16       	cp	r1, r18
    1788:	13 06       	cpc	r1, r19
    178a:	14 06       	cpc	r1, r20
    178c:	05 06       	cpc	r0, r21
    178e:	08 95       	ret

00001790 <__fp_round>:
    1790:	09 2e       	mov	r0, r25
    1792:	03 94       	inc	r0
    1794:	00 0c       	add	r0, r0
    1796:	11 f4       	brne	.+4      	; 0x179c <__fp_round+0xc>
    1798:	88 23       	and	r24, r24
    179a:	52 f0       	brmi	.+20     	; 0x17b0 <__fp_round+0x20>
    179c:	bb 0f       	add	r27, r27
    179e:	40 f4       	brcc	.+16     	; 0x17b0 <__fp_round+0x20>
    17a0:	bf 2b       	or	r27, r31
    17a2:	11 f4       	brne	.+4      	; 0x17a8 <__fp_round+0x18>
    17a4:	60 ff       	sbrs	r22, 0
    17a6:	04 c0       	rjmp	.+8      	; 0x17b0 <__fp_round+0x20>
    17a8:	6f 5f       	subi	r22, 0xFF	; 255
    17aa:	7f 4f       	sbci	r23, 0xFF	; 255
    17ac:	8f 4f       	sbci	r24, 0xFF	; 255
    17ae:	9f 4f       	sbci	r25, 0xFF	; 255
    17b0:	08 95       	ret

000017b2 <__fp_split3>:
    17b2:	57 fd       	sbrc	r21, 7
    17b4:	90 58       	subi	r25, 0x80	; 128
    17b6:	44 0f       	add	r20, r20
    17b8:	55 1f       	adc	r21, r21
    17ba:	59 f0       	breq	.+22     	; 0x17d2 <__fp_splitA+0x10>
    17bc:	5f 3f       	cpi	r21, 0xFF	; 255
    17be:	71 f0       	breq	.+28     	; 0x17dc <__fp_splitA+0x1a>
    17c0:	47 95       	ror	r20

000017c2 <__fp_splitA>:
    17c2:	88 0f       	add	r24, r24
    17c4:	97 fb       	bst	r25, 7
    17c6:	99 1f       	adc	r25, r25
    17c8:	61 f0       	breq	.+24     	; 0x17e2 <__fp_splitA+0x20>
    17ca:	9f 3f       	cpi	r25, 0xFF	; 255
    17cc:	79 f0       	breq	.+30     	; 0x17ec <__fp_splitA+0x2a>
    17ce:	87 95       	ror	r24
    17d0:	08 95       	ret
    17d2:	12 16       	cp	r1, r18
    17d4:	13 06       	cpc	r1, r19
    17d6:	14 06       	cpc	r1, r20
    17d8:	55 1f       	adc	r21, r21
    17da:	f2 cf       	rjmp	.-28     	; 0x17c0 <__fp_split3+0xe>
    17dc:	46 95       	lsr	r20
    17de:	f1 df       	rcall	.-30     	; 0x17c2 <__fp_splitA>
    17e0:	08 c0       	rjmp	.+16     	; 0x17f2 <__fp_splitA+0x30>
    17e2:	16 16       	cp	r1, r22
    17e4:	17 06       	cpc	r1, r23
    17e6:	18 06       	cpc	r1, r24
    17e8:	99 1f       	adc	r25, r25
    17ea:	f1 cf       	rjmp	.-30     	; 0x17ce <__fp_splitA+0xc>
    17ec:	86 95       	lsr	r24
    17ee:	71 05       	cpc	r23, r1
    17f0:	61 05       	cpc	r22, r1
    17f2:	08 94       	sec
    17f4:	08 95       	ret

000017f6 <__fp_zero>:
    17f6:	e8 94       	clt

000017f8 <__fp_szero>:
    17f8:	bb 27       	eor	r27, r27
    17fa:	66 27       	eor	r22, r22
    17fc:	77 27       	eor	r23, r23
    17fe:	cb 01       	movw	r24, r22
    1800:	97 f9       	bld	r25, 7
    1802:	08 95       	ret

00001804 <__gesf2>:
    1804:	0e 94 8d 0b 	call	0x171a	; 0x171a <__fp_cmp>
    1808:	08 f4       	brcc	.+2      	; 0x180c <__gesf2+0x8>
    180a:	8f ef       	ldi	r24, 0xFF	; 255
    180c:	08 95       	ret

0000180e <__mulsf3>:
    180e:	0e 94 1a 0c 	call	0x1834	; 0x1834 <__mulsf3x>
    1812:	0c 94 c8 0b 	jmp	0x1790	; 0x1790 <__fp_round>
    1816:	0e 94 ba 0b 	call	0x1774	; 0x1774 <__fp_pscA>
    181a:	38 f0       	brcs	.+14     	; 0x182a <__mulsf3+0x1c>
    181c:	0e 94 c1 0b 	call	0x1782	; 0x1782 <__fp_pscB>
    1820:	20 f0       	brcs	.+8      	; 0x182a <__mulsf3+0x1c>
    1822:	95 23       	and	r25, r21
    1824:	11 f0       	breq	.+4      	; 0x182a <__mulsf3+0x1c>
    1826:	0c 94 b1 0b 	jmp	0x1762	; 0x1762 <__fp_inf>
    182a:	0c 94 b7 0b 	jmp	0x176e	; 0x176e <__fp_nan>
    182e:	11 24       	eor	r1, r1
    1830:	0c 94 fc 0b 	jmp	0x17f8	; 0x17f8 <__fp_szero>

00001834 <__mulsf3x>:
    1834:	0e 94 d9 0b 	call	0x17b2	; 0x17b2 <__fp_split3>
    1838:	70 f3       	brcs	.-36     	; 0x1816 <__mulsf3+0x8>

0000183a <__mulsf3_pse>:
    183a:	95 9f       	mul	r25, r21
    183c:	c1 f3       	breq	.-16     	; 0x182e <__mulsf3+0x20>
    183e:	95 0f       	add	r25, r21
    1840:	50 e0       	ldi	r21, 0x00	; 0
    1842:	55 1f       	adc	r21, r21
    1844:	62 9f       	mul	r22, r18
    1846:	f0 01       	movw	r30, r0
    1848:	72 9f       	mul	r23, r18
    184a:	bb 27       	eor	r27, r27
    184c:	f0 0d       	add	r31, r0
    184e:	b1 1d       	adc	r27, r1
    1850:	63 9f       	mul	r22, r19
    1852:	aa 27       	eor	r26, r26
    1854:	f0 0d       	add	r31, r0
    1856:	b1 1d       	adc	r27, r1
    1858:	aa 1f       	adc	r26, r26
    185a:	64 9f       	mul	r22, r20
    185c:	66 27       	eor	r22, r22
    185e:	b0 0d       	add	r27, r0
    1860:	a1 1d       	adc	r26, r1
    1862:	66 1f       	adc	r22, r22
    1864:	82 9f       	mul	r24, r18
    1866:	22 27       	eor	r18, r18
    1868:	b0 0d       	add	r27, r0
    186a:	a1 1d       	adc	r26, r1
    186c:	62 1f       	adc	r22, r18
    186e:	73 9f       	mul	r23, r19
    1870:	b0 0d       	add	r27, r0
    1872:	a1 1d       	adc	r26, r1
    1874:	62 1f       	adc	r22, r18
    1876:	83 9f       	mul	r24, r19
    1878:	a0 0d       	add	r26, r0
    187a:	61 1d       	adc	r22, r1
    187c:	22 1f       	adc	r18, r18
    187e:	74 9f       	mul	r23, r20
    1880:	33 27       	eor	r19, r19
    1882:	a0 0d       	add	r26, r0
    1884:	61 1d       	adc	r22, r1
    1886:	23 1f       	adc	r18, r19
    1888:	84 9f       	mul	r24, r20
    188a:	60 0d       	add	r22, r0
    188c:	21 1d       	adc	r18, r1
    188e:	82 2f       	mov	r24, r18
    1890:	76 2f       	mov	r23, r22
    1892:	6a 2f       	mov	r22, r26
    1894:	11 24       	eor	r1, r1
    1896:	9f 57       	subi	r25, 0x7F	; 127
    1898:	50 40       	sbci	r21, 0x00	; 0
    189a:	9a f0       	brmi	.+38     	; 0x18c2 <__mulsf3_pse+0x88>
    189c:	f1 f0       	breq	.+60     	; 0x18da <__mulsf3_pse+0xa0>
    189e:	88 23       	and	r24, r24
    18a0:	4a f0       	brmi	.+18     	; 0x18b4 <__mulsf3_pse+0x7a>
    18a2:	ee 0f       	add	r30, r30
    18a4:	ff 1f       	adc	r31, r31
    18a6:	bb 1f       	adc	r27, r27
    18a8:	66 1f       	adc	r22, r22
    18aa:	77 1f       	adc	r23, r23
    18ac:	88 1f       	adc	r24, r24
    18ae:	91 50       	subi	r25, 0x01	; 1
    18b0:	50 40       	sbci	r21, 0x00	; 0
    18b2:	a9 f7       	brne	.-22     	; 0x189e <__mulsf3_pse+0x64>
    18b4:	9e 3f       	cpi	r25, 0xFE	; 254
    18b6:	51 05       	cpc	r21, r1
    18b8:	80 f0       	brcs	.+32     	; 0x18da <__mulsf3_pse+0xa0>
    18ba:	0c 94 b1 0b 	jmp	0x1762	; 0x1762 <__fp_inf>
    18be:	0c 94 fc 0b 	jmp	0x17f8	; 0x17f8 <__fp_szero>
    18c2:	5f 3f       	cpi	r21, 0xFF	; 255
    18c4:	e4 f3       	brlt	.-8      	; 0x18be <__mulsf3_pse+0x84>
    18c6:	98 3e       	cpi	r25, 0xE8	; 232
    18c8:	d4 f3       	brlt	.-12     	; 0x18be <__mulsf3_pse+0x84>
    18ca:	86 95       	lsr	r24
    18cc:	77 95       	ror	r23
    18ce:	67 95       	ror	r22
    18d0:	b7 95       	ror	r27
    18d2:	f7 95       	ror	r31
    18d4:	e7 95       	ror	r30
    18d6:	9f 5f       	subi	r25, 0xFF	; 255
    18d8:	c1 f7       	brne	.-16     	; 0x18ca <__mulsf3_pse+0x90>
    18da:	fe 2b       	or	r31, r30
    18dc:	88 0f       	add	r24, r24
    18de:	91 1d       	adc	r25, r1
    18e0:	96 95       	lsr	r25
    18e2:	87 95       	ror	r24
    18e4:	97 f9       	bld	r25, 7
    18e6:	08 95       	ret

000018e8 <vfprintf>:
    18e8:	a0 e1       	ldi	r26, 0x10	; 16
    18ea:	b0 e0       	ldi	r27, 0x00	; 0
    18ec:	ea e7       	ldi	r30, 0x7A	; 122
    18ee:	fc e0       	ldi	r31, 0x0C	; 12
    18f0:	0c 94 81 10 	jmp	0x2102	; 0x2102 <__prologue_saves__>
    18f4:	7c 01       	movw	r14, r24
    18f6:	1b 01       	movw	r2, r22
    18f8:	6a 01       	movw	r12, r20
    18fa:	fc 01       	movw	r30, r24
    18fc:	17 82       	std	Z+7, r1	; 0x07
    18fe:	16 82       	std	Z+6, r1	; 0x06
    1900:	83 81       	ldd	r24, Z+3	; 0x03
    1902:	81 ff       	sbrs	r24, 1
    1904:	44 c3       	rjmp	.+1672   	; 0x1f8e <vfprintf+0x6a6>
    1906:	9e 01       	movw	r18, r28
    1908:	2f 5f       	subi	r18, 0xFF	; 255
    190a:	3f 4f       	sbci	r19, 0xFF	; 255
    190c:	39 01       	movw	r6, r18
    190e:	f7 01       	movw	r30, r14
    1910:	93 81       	ldd	r25, Z+3	; 0x03
    1912:	f1 01       	movw	r30, r2
    1914:	93 fd       	sbrc	r25, 3
    1916:	85 91       	lpm	r24, Z+
    1918:	93 ff       	sbrs	r25, 3
    191a:	81 91       	ld	r24, Z+
    191c:	1f 01       	movw	r2, r30
    191e:	88 23       	and	r24, r24
    1920:	09 f4       	brne	.+2      	; 0x1924 <vfprintf+0x3c>
    1922:	31 c3       	rjmp	.+1634   	; 0x1f86 <vfprintf+0x69e>
    1924:	85 32       	cpi	r24, 0x25	; 37
    1926:	39 f4       	brne	.+14     	; 0x1936 <vfprintf+0x4e>
    1928:	93 fd       	sbrc	r25, 3
    192a:	85 91       	lpm	r24, Z+
    192c:	93 ff       	sbrs	r25, 3
    192e:	81 91       	ld	r24, Z+
    1930:	1f 01       	movw	r2, r30
    1932:	85 32       	cpi	r24, 0x25	; 37
    1934:	39 f4       	brne	.+14     	; 0x1944 <vfprintf+0x5c>
    1936:	b7 01       	movw	r22, r14
    1938:	90 e0       	ldi	r25, 0x00	; 0
    193a:	0e 94 16 12 	call	0x242c	; 0x242c <fputc>
    193e:	56 01       	movw	r10, r12
    1940:	65 01       	movw	r12, r10
    1942:	e5 cf       	rjmp	.-54     	; 0x190e <vfprintf+0x26>
    1944:	10 e0       	ldi	r17, 0x00	; 0
    1946:	51 2c       	mov	r5, r1
    1948:	91 2c       	mov	r9, r1
    194a:	ff e1       	ldi	r31, 0x1F	; 31
    194c:	f9 15       	cp	r31, r9
    194e:	d8 f0       	brcs	.+54     	; 0x1986 <vfprintf+0x9e>
    1950:	8b 32       	cpi	r24, 0x2B	; 43
    1952:	79 f0       	breq	.+30     	; 0x1972 <vfprintf+0x8a>
    1954:	38 f4       	brcc	.+14     	; 0x1964 <vfprintf+0x7c>
    1956:	80 32       	cpi	r24, 0x20	; 32
    1958:	79 f0       	breq	.+30     	; 0x1978 <vfprintf+0x90>
    195a:	83 32       	cpi	r24, 0x23	; 35
    195c:	a1 f4       	brne	.+40     	; 0x1986 <vfprintf+0x9e>
    195e:	f9 2d       	mov	r31, r9
    1960:	f0 61       	ori	r31, 0x10	; 16
    1962:	2e c0       	rjmp	.+92     	; 0x19c0 <vfprintf+0xd8>
    1964:	8d 32       	cpi	r24, 0x2D	; 45
    1966:	61 f0       	breq	.+24     	; 0x1980 <vfprintf+0x98>
    1968:	80 33       	cpi	r24, 0x30	; 48
    196a:	69 f4       	brne	.+26     	; 0x1986 <vfprintf+0x9e>
    196c:	29 2d       	mov	r18, r9
    196e:	21 60       	ori	r18, 0x01	; 1
    1970:	2d c0       	rjmp	.+90     	; 0x19cc <vfprintf+0xe4>
    1972:	39 2d       	mov	r19, r9
    1974:	32 60       	ori	r19, 0x02	; 2
    1976:	93 2e       	mov	r9, r19
    1978:	89 2d       	mov	r24, r9
    197a:	84 60       	ori	r24, 0x04	; 4
    197c:	98 2e       	mov	r9, r24
    197e:	2a c0       	rjmp	.+84     	; 0x19d4 <vfprintf+0xec>
    1980:	e9 2d       	mov	r30, r9
    1982:	e8 60       	ori	r30, 0x08	; 8
    1984:	15 c0       	rjmp	.+42     	; 0x19b0 <vfprintf+0xc8>
    1986:	97 fc       	sbrc	r9, 7
    1988:	2d c0       	rjmp	.+90     	; 0x19e4 <vfprintf+0xfc>
    198a:	20 ed       	ldi	r18, 0xD0	; 208
    198c:	28 0f       	add	r18, r24
    198e:	2a 30       	cpi	r18, 0x0A	; 10
    1990:	88 f4       	brcc	.+34     	; 0x19b4 <vfprintf+0xcc>
    1992:	96 fe       	sbrs	r9, 6
    1994:	06 c0       	rjmp	.+12     	; 0x19a2 <vfprintf+0xba>
    1996:	3a e0       	ldi	r19, 0x0A	; 10
    1998:	13 9f       	mul	r17, r19
    199a:	20 0d       	add	r18, r0
    199c:	11 24       	eor	r1, r1
    199e:	12 2f       	mov	r17, r18
    19a0:	19 c0       	rjmp	.+50     	; 0x19d4 <vfprintf+0xec>
    19a2:	8a e0       	ldi	r24, 0x0A	; 10
    19a4:	58 9e       	mul	r5, r24
    19a6:	20 0d       	add	r18, r0
    19a8:	11 24       	eor	r1, r1
    19aa:	52 2e       	mov	r5, r18
    19ac:	e9 2d       	mov	r30, r9
    19ae:	e0 62       	ori	r30, 0x20	; 32
    19b0:	9e 2e       	mov	r9, r30
    19b2:	10 c0       	rjmp	.+32     	; 0x19d4 <vfprintf+0xec>
    19b4:	8e 32       	cpi	r24, 0x2E	; 46
    19b6:	31 f4       	brne	.+12     	; 0x19c4 <vfprintf+0xdc>
    19b8:	96 fc       	sbrc	r9, 6
    19ba:	e5 c2       	rjmp	.+1482   	; 0x1f86 <vfprintf+0x69e>
    19bc:	f9 2d       	mov	r31, r9
    19be:	f0 64       	ori	r31, 0x40	; 64
    19c0:	9f 2e       	mov	r9, r31
    19c2:	08 c0       	rjmp	.+16     	; 0x19d4 <vfprintf+0xec>
    19c4:	8c 36       	cpi	r24, 0x6C	; 108
    19c6:	21 f4       	brne	.+8      	; 0x19d0 <vfprintf+0xe8>
    19c8:	29 2d       	mov	r18, r9
    19ca:	20 68       	ori	r18, 0x80	; 128
    19cc:	92 2e       	mov	r9, r18
    19ce:	02 c0       	rjmp	.+4      	; 0x19d4 <vfprintf+0xec>
    19d0:	88 36       	cpi	r24, 0x68	; 104
    19d2:	41 f4       	brne	.+16     	; 0x19e4 <vfprintf+0xfc>
    19d4:	f1 01       	movw	r30, r2
    19d6:	93 fd       	sbrc	r25, 3
    19d8:	85 91       	lpm	r24, Z+
    19da:	93 ff       	sbrs	r25, 3
    19dc:	81 91       	ld	r24, Z+
    19de:	1f 01       	movw	r2, r30
    19e0:	81 11       	cpse	r24, r1
    19e2:	b3 cf       	rjmp	.-154    	; 0x194a <vfprintf+0x62>
    19e4:	9b eb       	ldi	r25, 0xBB	; 187
    19e6:	98 0f       	add	r25, r24
    19e8:	93 30       	cpi	r25, 0x03	; 3
    19ea:	20 f4       	brcc	.+8      	; 0x19f4 <vfprintf+0x10c>
    19ec:	99 2d       	mov	r25, r9
    19ee:	90 61       	ori	r25, 0x10	; 16
    19f0:	80 5e       	subi	r24, 0xE0	; 224
    19f2:	07 c0       	rjmp	.+14     	; 0x1a02 <vfprintf+0x11a>
    19f4:	9b e9       	ldi	r25, 0x9B	; 155
    19f6:	98 0f       	add	r25, r24
    19f8:	93 30       	cpi	r25, 0x03	; 3
    19fa:	08 f0       	brcs	.+2      	; 0x19fe <vfprintf+0x116>
    19fc:	66 c1       	rjmp	.+716    	; 0x1cca <vfprintf+0x3e2>
    19fe:	99 2d       	mov	r25, r9
    1a00:	9f 7e       	andi	r25, 0xEF	; 239
    1a02:	96 ff       	sbrs	r25, 6
    1a04:	16 e0       	ldi	r17, 0x06	; 6
    1a06:	9f 73       	andi	r25, 0x3F	; 63
    1a08:	99 2e       	mov	r9, r25
    1a0a:	85 36       	cpi	r24, 0x65	; 101
    1a0c:	19 f4       	brne	.+6      	; 0x1a14 <vfprintf+0x12c>
    1a0e:	90 64       	ori	r25, 0x40	; 64
    1a10:	99 2e       	mov	r9, r25
    1a12:	08 c0       	rjmp	.+16     	; 0x1a24 <vfprintf+0x13c>
    1a14:	86 36       	cpi	r24, 0x66	; 102
    1a16:	21 f4       	brne	.+8      	; 0x1a20 <vfprintf+0x138>
    1a18:	39 2f       	mov	r19, r25
    1a1a:	30 68       	ori	r19, 0x80	; 128
    1a1c:	93 2e       	mov	r9, r19
    1a1e:	02 c0       	rjmp	.+4      	; 0x1a24 <vfprintf+0x13c>
    1a20:	11 11       	cpse	r17, r1
    1a22:	11 50       	subi	r17, 0x01	; 1
    1a24:	97 fe       	sbrs	r9, 7
    1a26:	07 c0       	rjmp	.+14     	; 0x1a36 <vfprintf+0x14e>
    1a28:	1c 33       	cpi	r17, 0x3C	; 60
    1a2a:	50 f4       	brcc	.+20     	; 0x1a40 <vfprintf+0x158>
    1a2c:	44 24       	eor	r4, r4
    1a2e:	43 94       	inc	r4
    1a30:	41 0e       	add	r4, r17
    1a32:	27 e0       	ldi	r18, 0x07	; 7
    1a34:	0b c0       	rjmp	.+22     	; 0x1a4c <vfprintf+0x164>
    1a36:	18 30       	cpi	r17, 0x08	; 8
    1a38:	38 f0       	brcs	.+14     	; 0x1a48 <vfprintf+0x160>
    1a3a:	27 e0       	ldi	r18, 0x07	; 7
    1a3c:	17 e0       	ldi	r17, 0x07	; 7
    1a3e:	05 c0       	rjmp	.+10     	; 0x1a4a <vfprintf+0x162>
    1a40:	27 e0       	ldi	r18, 0x07	; 7
    1a42:	9c e3       	ldi	r25, 0x3C	; 60
    1a44:	49 2e       	mov	r4, r25
    1a46:	02 c0       	rjmp	.+4      	; 0x1a4c <vfprintf+0x164>
    1a48:	21 2f       	mov	r18, r17
    1a4a:	41 2c       	mov	r4, r1
    1a4c:	56 01       	movw	r10, r12
    1a4e:	84 e0       	ldi	r24, 0x04	; 4
    1a50:	a8 0e       	add	r10, r24
    1a52:	b1 1c       	adc	r11, r1
    1a54:	f6 01       	movw	r30, r12
    1a56:	60 81       	ld	r22, Z
    1a58:	71 81       	ldd	r23, Z+1	; 0x01
    1a5a:	82 81       	ldd	r24, Z+2	; 0x02
    1a5c:	93 81       	ldd	r25, Z+3	; 0x03
    1a5e:	04 2d       	mov	r16, r4
    1a60:	a3 01       	movw	r20, r6
    1a62:	0e 94 1f 11 	call	0x223e	; 0x223e <__ftoa_engine>
    1a66:	6c 01       	movw	r12, r24
    1a68:	f9 81       	ldd	r31, Y+1	; 0x01
    1a6a:	fc 87       	std	Y+12, r31	; 0x0c
    1a6c:	f0 ff       	sbrs	r31, 0
    1a6e:	02 c0       	rjmp	.+4      	; 0x1a74 <vfprintf+0x18c>
    1a70:	f3 ff       	sbrs	r31, 3
    1a72:	06 c0       	rjmp	.+12     	; 0x1a80 <vfprintf+0x198>
    1a74:	91 fc       	sbrc	r9, 1
    1a76:	06 c0       	rjmp	.+12     	; 0x1a84 <vfprintf+0x19c>
    1a78:	92 fe       	sbrs	r9, 2
    1a7a:	06 c0       	rjmp	.+12     	; 0x1a88 <vfprintf+0x1a0>
    1a7c:	00 e2       	ldi	r16, 0x20	; 32
    1a7e:	05 c0       	rjmp	.+10     	; 0x1a8a <vfprintf+0x1a2>
    1a80:	0d e2       	ldi	r16, 0x2D	; 45
    1a82:	03 c0       	rjmp	.+6      	; 0x1a8a <vfprintf+0x1a2>
    1a84:	0b e2       	ldi	r16, 0x2B	; 43
    1a86:	01 c0       	rjmp	.+2      	; 0x1a8a <vfprintf+0x1a2>
    1a88:	00 e0       	ldi	r16, 0x00	; 0
    1a8a:	8c 85       	ldd	r24, Y+12	; 0x0c
    1a8c:	8c 70       	andi	r24, 0x0C	; 12
    1a8e:	19 f0       	breq	.+6      	; 0x1a96 <vfprintf+0x1ae>
    1a90:	01 11       	cpse	r16, r1
    1a92:	5a c2       	rjmp	.+1204   	; 0x1f48 <vfprintf+0x660>
    1a94:	9b c2       	rjmp	.+1334   	; 0x1fcc <vfprintf+0x6e4>
    1a96:	97 fe       	sbrs	r9, 7
    1a98:	10 c0       	rjmp	.+32     	; 0x1aba <vfprintf+0x1d2>
    1a9a:	4c 0c       	add	r4, r12
    1a9c:	fc 85       	ldd	r31, Y+12	; 0x0c
    1a9e:	f4 ff       	sbrs	r31, 4
    1aa0:	04 c0       	rjmp	.+8      	; 0x1aaa <vfprintf+0x1c2>
    1aa2:	8a 81       	ldd	r24, Y+2	; 0x02
    1aa4:	81 33       	cpi	r24, 0x31	; 49
    1aa6:	09 f4       	brne	.+2      	; 0x1aaa <vfprintf+0x1c2>
    1aa8:	4a 94       	dec	r4
    1aaa:	14 14       	cp	r1, r4
    1aac:	74 f5       	brge	.+92     	; 0x1b0a <vfprintf+0x222>
    1aae:	28 e0       	ldi	r18, 0x08	; 8
    1ab0:	24 15       	cp	r18, r4
    1ab2:	78 f5       	brcc	.+94     	; 0x1b12 <vfprintf+0x22a>
    1ab4:	88 e0       	ldi	r24, 0x08	; 8
    1ab6:	48 2e       	mov	r4, r24
    1ab8:	2c c0       	rjmp	.+88     	; 0x1b12 <vfprintf+0x22a>
    1aba:	96 fc       	sbrc	r9, 6
    1abc:	2a c0       	rjmp	.+84     	; 0x1b12 <vfprintf+0x22a>
    1abe:	81 2f       	mov	r24, r17
    1ac0:	90 e0       	ldi	r25, 0x00	; 0
    1ac2:	8c 15       	cp	r24, r12
    1ac4:	9d 05       	cpc	r25, r13
    1ac6:	9c f0       	brlt	.+38     	; 0x1aee <vfprintf+0x206>
    1ac8:	3c ef       	ldi	r19, 0xFC	; 252
    1aca:	c3 16       	cp	r12, r19
    1acc:	3f ef       	ldi	r19, 0xFF	; 255
    1ace:	d3 06       	cpc	r13, r19
    1ad0:	74 f0       	brlt	.+28     	; 0x1aee <vfprintf+0x206>
    1ad2:	89 2d       	mov	r24, r9
    1ad4:	80 68       	ori	r24, 0x80	; 128
    1ad6:	98 2e       	mov	r9, r24
    1ad8:	0a c0       	rjmp	.+20     	; 0x1aee <vfprintf+0x206>
    1ada:	e2 e0       	ldi	r30, 0x02	; 2
    1adc:	f0 e0       	ldi	r31, 0x00	; 0
    1ade:	ec 0f       	add	r30, r28
    1ae0:	fd 1f       	adc	r31, r29
    1ae2:	e1 0f       	add	r30, r17
    1ae4:	f1 1d       	adc	r31, r1
    1ae6:	80 81       	ld	r24, Z
    1ae8:	80 33       	cpi	r24, 0x30	; 48
    1aea:	19 f4       	brne	.+6      	; 0x1af2 <vfprintf+0x20a>
    1aec:	11 50       	subi	r17, 0x01	; 1
    1aee:	11 11       	cpse	r17, r1
    1af0:	f4 cf       	rjmp	.-24     	; 0x1ada <vfprintf+0x1f2>
    1af2:	97 fe       	sbrs	r9, 7
    1af4:	0e c0       	rjmp	.+28     	; 0x1b12 <vfprintf+0x22a>
    1af6:	44 24       	eor	r4, r4
    1af8:	43 94       	inc	r4
    1afa:	41 0e       	add	r4, r17
    1afc:	81 2f       	mov	r24, r17
    1afe:	90 e0       	ldi	r25, 0x00	; 0
    1b00:	c8 16       	cp	r12, r24
    1b02:	d9 06       	cpc	r13, r25
    1b04:	2c f4       	brge	.+10     	; 0x1b10 <vfprintf+0x228>
    1b06:	1c 19       	sub	r17, r12
    1b08:	04 c0       	rjmp	.+8      	; 0x1b12 <vfprintf+0x22a>
    1b0a:	44 24       	eor	r4, r4
    1b0c:	43 94       	inc	r4
    1b0e:	01 c0       	rjmp	.+2      	; 0x1b12 <vfprintf+0x22a>
    1b10:	10 e0       	ldi	r17, 0x00	; 0
    1b12:	97 fe       	sbrs	r9, 7
    1b14:	06 c0       	rjmp	.+12     	; 0x1b22 <vfprintf+0x23a>
    1b16:	1c 14       	cp	r1, r12
    1b18:	1d 04       	cpc	r1, r13
    1b1a:	34 f4       	brge	.+12     	; 0x1b28 <vfprintf+0x240>
    1b1c:	c6 01       	movw	r24, r12
    1b1e:	01 96       	adiw	r24, 0x01	; 1
    1b20:	05 c0       	rjmp	.+10     	; 0x1b2c <vfprintf+0x244>
    1b22:	85 e0       	ldi	r24, 0x05	; 5
    1b24:	90 e0       	ldi	r25, 0x00	; 0
    1b26:	02 c0       	rjmp	.+4      	; 0x1b2c <vfprintf+0x244>
    1b28:	81 e0       	ldi	r24, 0x01	; 1
    1b2a:	90 e0       	ldi	r25, 0x00	; 0
    1b2c:	01 11       	cpse	r16, r1
    1b2e:	01 96       	adiw	r24, 0x01	; 1
    1b30:	11 23       	and	r17, r17
    1b32:	31 f0       	breq	.+12     	; 0x1b40 <vfprintf+0x258>
    1b34:	21 2f       	mov	r18, r17
    1b36:	30 e0       	ldi	r19, 0x00	; 0
    1b38:	2f 5f       	subi	r18, 0xFF	; 255
    1b3a:	3f 4f       	sbci	r19, 0xFF	; 255
    1b3c:	82 0f       	add	r24, r18
    1b3e:	93 1f       	adc	r25, r19
    1b40:	25 2d       	mov	r18, r5
    1b42:	30 e0       	ldi	r19, 0x00	; 0
    1b44:	82 17       	cp	r24, r18
    1b46:	93 07       	cpc	r25, r19
    1b48:	14 f4       	brge	.+4      	; 0x1b4e <vfprintf+0x266>
    1b4a:	58 1a       	sub	r5, r24
    1b4c:	01 c0       	rjmp	.+2      	; 0x1b50 <vfprintf+0x268>
    1b4e:	51 2c       	mov	r5, r1
    1b50:	89 2d       	mov	r24, r9
    1b52:	89 70       	andi	r24, 0x09	; 9
    1b54:	49 f4       	brne	.+18     	; 0x1b68 <vfprintf+0x280>
    1b56:	55 20       	and	r5, r5
    1b58:	39 f0       	breq	.+14     	; 0x1b68 <vfprintf+0x280>
    1b5a:	b7 01       	movw	r22, r14
    1b5c:	80 e2       	ldi	r24, 0x20	; 32
    1b5e:	90 e0       	ldi	r25, 0x00	; 0
    1b60:	0e 94 16 12 	call	0x242c	; 0x242c <fputc>
    1b64:	5a 94       	dec	r5
    1b66:	f7 cf       	rjmp	.-18     	; 0x1b56 <vfprintf+0x26e>
    1b68:	00 23       	and	r16, r16
    1b6a:	29 f0       	breq	.+10     	; 0x1b76 <vfprintf+0x28e>
    1b6c:	b7 01       	movw	r22, r14
    1b6e:	80 2f       	mov	r24, r16
    1b70:	90 e0       	ldi	r25, 0x00	; 0
    1b72:	0e 94 16 12 	call	0x242c	; 0x242c <fputc>
    1b76:	93 fc       	sbrc	r9, 3
    1b78:	09 c0       	rjmp	.+18     	; 0x1b8c <vfprintf+0x2a4>
    1b7a:	55 20       	and	r5, r5
    1b7c:	39 f0       	breq	.+14     	; 0x1b8c <vfprintf+0x2a4>
    1b7e:	b7 01       	movw	r22, r14
    1b80:	80 e3       	ldi	r24, 0x30	; 48
    1b82:	90 e0       	ldi	r25, 0x00	; 0
    1b84:	0e 94 16 12 	call	0x242c	; 0x242c <fputc>
    1b88:	5a 94       	dec	r5
    1b8a:	f7 cf       	rjmp	.-18     	; 0x1b7a <vfprintf+0x292>
    1b8c:	97 fe       	sbrs	r9, 7
    1b8e:	4c c0       	rjmp	.+152    	; 0x1c28 <vfprintf+0x340>
    1b90:	46 01       	movw	r8, r12
    1b92:	d7 fe       	sbrs	r13, 7
    1b94:	02 c0       	rjmp	.+4      	; 0x1b9a <vfprintf+0x2b2>
    1b96:	81 2c       	mov	r8, r1
    1b98:	91 2c       	mov	r9, r1
    1b9a:	c6 01       	movw	r24, r12
    1b9c:	88 19       	sub	r24, r8
    1b9e:	99 09       	sbc	r25, r9
    1ba0:	f3 01       	movw	r30, r6
    1ba2:	e8 0f       	add	r30, r24
    1ba4:	f9 1f       	adc	r31, r25
    1ba6:	fe 87       	std	Y+14, r31	; 0x0e
    1ba8:	ed 87       	std	Y+13, r30	; 0x0d
    1baa:	96 01       	movw	r18, r12
    1bac:	24 19       	sub	r18, r4
    1bae:	31 09       	sbc	r19, r1
    1bb0:	38 8b       	std	Y+16, r19	; 0x10
    1bb2:	2f 87       	std	Y+15, r18	; 0x0f
    1bb4:	01 2f       	mov	r16, r17
    1bb6:	10 e0       	ldi	r17, 0x00	; 0
    1bb8:	11 95       	neg	r17
    1bba:	01 95       	neg	r16
    1bbc:	11 09       	sbc	r17, r1
    1bbe:	3f ef       	ldi	r19, 0xFF	; 255
    1bc0:	83 16       	cp	r8, r19
    1bc2:	93 06       	cpc	r9, r19
    1bc4:	29 f4       	brne	.+10     	; 0x1bd0 <vfprintf+0x2e8>
    1bc6:	b7 01       	movw	r22, r14
    1bc8:	8e e2       	ldi	r24, 0x2E	; 46
    1bca:	90 e0       	ldi	r25, 0x00	; 0
    1bcc:	0e 94 16 12 	call	0x242c	; 0x242c <fputc>
    1bd0:	c8 14       	cp	r12, r8
    1bd2:	d9 04       	cpc	r13, r9
    1bd4:	4c f0       	brlt	.+18     	; 0x1be8 <vfprintf+0x300>
    1bd6:	8f 85       	ldd	r24, Y+15	; 0x0f
    1bd8:	98 89       	ldd	r25, Y+16	; 0x10
    1bda:	88 15       	cp	r24, r8
    1bdc:	99 05       	cpc	r25, r9
    1bde:	24 f4       	brge	.+8      	; 0x1be8 <vfprintf+0x300>
    1be0:	ed 85       	ldd	r30, Y+13	; 0x0d
    1be2:	fe 85       	ldd	r31, Y+14	; 0x0e
    1be4:	81 81       	ldd	r24, Z+1	; 0x01
    1be6:	01 c0       	rjmp	.+2      	; 0x1bea <vfprintf+0x302>
    1be8:	80 e3       	ldi	r24, 0x30	; 48
    1bea:	f1 e0       	ldi	r31, 0x01	; 1
    1bec:	8f 1a       	sub	r8, r31
    1bee:	91 08       	sbc	r9, r1
    1bf0:	2d 85       	ldd	r18, Y+13	; 0x0d
    1bf2:	3e 85       	ldd	r19, Y+14	; 0x0e
    1bf4:	2f 5f       	subi	r18, 0xFF	; 255
    1bf6:	3f 4f       	sbci	r19, 0xFF	; 255
    1bf8:	3e 87       	std	Y+14, r19	; 0x0e
    1bfa:	2d 87       	std	Y+13, r18	; 0x0d
    1bfc:	80 16       	cp	r8, r16
    1bfe:	91 06       	cpc	r9, r17
    1c00:	2c f0       	brlt	.+10     	; 0x1c0c <vfprintf+0x324>
    1c02:	b7 01       	movw	r22, r14
    1c04:	90 e0       	ldi	r25, 0x00	; 0
    1c06:	0e 94 16 12 	call	0x242c	; 0x242c <fputc>
    1c0a:	d9 cf       	rjmp	.-78     	; 0x1bbe <vfprintf+0x2d6>
    1c0c:	c8 14       	cp	r12, r8
    1c0e:	d9 04       	cpc	r13, r9
    1c10:	41 f4       	brne	.+16     	; 0x1c22 <vfprintf+0x33a>
    1c12:	9a 81       	ldd	r25, Y+2	; 0x02
    1c14:	96 33       	cpi	r25, 0x36	; 54
    1c16:	20 f4       	brcc	.+8      	; 0x1c20 <vfprintf+0x338>
    1c18:	95 33       	cpi	r25, 0x35	; 53
    1c1a:	19 f4       	brne	.+6      	; 0x1c22 <vfprintf+0x33a>
    1c1c:	3c 85       	ldd	r19, Y+12	; 0x0c
    1c1e:	34 ff       	sbrs	r19, 4
    1c20:	81 e3       	ldi	r24, 0x31	; 49
    1c22:	b7 01       	movw	r22, r14
    1c24:	90 e0       	ldi	r25, 0x00	; 0
    1c26:	4e c0       	rjmp	.+156    	; 0x1cc4 <vfprintf+0x3dc>
    1c28:	8a 81       	ldd	r24, Y+2	; 0x02
    1c2a:	81 33       	cpi	r24, 0x31	; 49
    1c2c:	19 f0       	breq	.+6      	; 0x1c34 <vfprintf+0x34c>
    1c2e:	9c 85       	ldd	r25, Y+12	; 0x0c
    1c30:	9f 7e       	andi	r25, 0xEF	; 239
    1c32:	9c 87       	std	Y+12, r25	; 0x0c
    1c34:	b7 01       	movw	r22, r14
    1c36:	90 e0       	ldi	r25, 0x00	; 0
    1c38:	0e 94 16 12 	call	0x242c	; 0x242c <fputc>
    1c3c:	11 11       	cpse	r17, r1
    1c3e:	05 c0       	rjmp	.+10     	; 0x1c4a <vfprintf+0x362>
    1c40:	94 fc       	sbrc	r9, 4
    1c42:	18 c0       	rjmp	.+48     	; 0x1c74 <vfprintf+0x38c>
    1c44:	85 e6       	ldi	r24, 0x65	; 101
    1c46:	90 e0       	ldi	r25, 0x00	; 0
    1c48:	17 c0       	rjmp	.+46     	; 0x1c78 <vfprintf+0x390>
    1c4a:	b7 01       	movw	r22, r14
    1c4c:	8e e2       	ldi	r24, 0x2E	; 46
    1c4e:	90 e0       	ldi	r25, 0x00	; 0
    1c50:	0e 94 16 12 	call	0x242c	; 0x242c <fputc>
    1c54:	1e 5f       	subi	r17, 0xFE	; 254
    1c56:	82 e0       	ldi	r24, 0x02	; 2
    1c58:	01 e0       	ldi	r16, 0x01	; 1
    1c5a:	08 0f       	add	r16, r24
    1c5c:	f3 01       	movw	r30, r6
    1c5e:	e8 0f       	add	r30, r24
    1c60:	f1 1d       	adc	r31, r1
    1c62:	80 81       	ld	r24, Z
    1c64:	b7 01       	movw	r22, r14
    1c66:	90 e0       	ldi	r25, 0x00	; 0
    1c68:	0e 94 16 12 	call	0x242c	; 0x242c <fputc>
    1c6c:	80 2f       	mov	r24, r16
    1c6e:	01 13       	cpse	r16, r17
    1c70:	f3 cf       	rjmp	.-26     	; 0x1c58 <vfprintf+0x370>
    1c72:	e6 cf       	rjmp	.-52     	; 0x1c40 <vfprintf+0x358>
    1c74:	85 e4       	ldi	r24, 0x45	; 69
    1c76:	90 e0       	ldi	r25, 0x00	; 0
    1c78:	b7 01       	movw	r22, r14
    1c7a:	0e 94 16 12 	call	0x242c	; 0x242c <fputc>
    1c7e:	d7 fc       	sbrc	r13, 7
    1c80:	06 c0       	rjmp	.+12     	; 0x1c8e <vfprintf+0x3a6>
    1c82:	c1 14       	cp	r12, r1
    1c84:	d1 04       	cpc	r13, r1
    1c86:	41 f4       	brne	.+16     	; 0x1c98 <vfprintf+0x3b0>
    1c88:	ec 85       	ldd	r30, Y+12	; 0x0c
    1c8a:	e4 ff       	sbrs	r30, 4
    1c8c:	05 c0       	rjmp	.+10     	; 0x1c98 <vfprintf+0x3b0>
    1c8e:	d1 94       	neg	r13
    1c90:	c1 94       	neg	r12
    1c92:	d1 08       	sbc	r13, r1
    1c94:	8d e2       	ldi	r24, 0x2D	; 45
    1c96:	01 c0       	rjmp	.+2      	; 0x1c9a <vfprintf+0x3b2>
    1c98:	8b e2       	ldi	r24, 0x2B	; 43
    1c9a:	b7 01       	movw	r22, r14
    1c9c:	90 e0       	ldi	r25, 0x00	; 0
    1c9e:	0e 94 16 12 	call	0x242c	; 0x242c <fputc>
    1ca2:	80 e3       	ldi	r24, 0x30	; 48
    1ca4:	2a e0       	ldi	r18, 0x0A	; 10
    1ca6:	c2 16       	cp	r12, r18
    1ca8:	d1 04       	cpc	r13, r1
    1caa:	2c f0       	brlt	.+10     	; 0x1cb6 <vfprintf+0x3ce>
    1cac:	8f 5f       	subi	r24, 0xFF	; 255
    1cae:	fa e0       	ldi	r31, 0x0A	; 10
    1cb0:	cf 1a       	sub	r12, r31
    1cb2:	d1 08       	sbc	r13, r1
    1cb4:	f7 cf       	rjmp	.-18     	; 0x1ca4 <vfprintf+0x3bc>
    1cb6:	b7 01       	movw	r22, r14
    1cb8:	90 e0       	ldi	r25, 0x00	; 0
    1cba:	0e 94 16 12 	call	0x242c	; 0x242c <fputc>
    1cbe:	b7 01       	movw	r22, r14
    1cc0:	c6 01       	movw	r24, r12
    1cc2:	c0 96       	adiw	r24, 0x30	; 48
    1cc4:	0e 94 16 12 	call	0x242c	; 0x242c <fputc>
    1cc8:	54 c1       	rjmp	.+680    	; 0x1f72 <vfprintf+0x68a>
    1cca:	83 36       	cpi	r24, 0x63	; 99
    1ccc:	31 f0       	breq	.+12     	; 0x1cda <vfprintf+0x3f2>
    1cce:	83 37       	cpi	r24, 0x73	; 115
    1cd0:	79 f0       	breq	.+30     	; 0x1cf0 <vfprintf+0x408>
    1cd2:	83 35       	cpi	r24, 0x53	; 83
    1cd4:	09 f0       	breq	.+2      	; 0x1cd8 <vfprintf+0x3f0>
    1cd6:	56 c0       	rjmp	.+172    	; 0x1d84 <vfprintf+0x49c>
    1cd8:	20 c0       	rjmp	.+64     	; 0x1d1a <vfprintf+0x432>
    1cda:	56 01       	movw	r10, r12
    1cdc:	32 e0       	ldi	r19, 0x02	; 2
    1cde:	a3 0e       	add	r10, r19
    1ce0:	b1 1c       	adc	r11, r1
    1ce2:	f6 01       	movw	r30, r12
    1ce4:	80 81       	ld	r24, Z
    1ce6:	89 83       	std	Y+1, r24	; 0x01
    1ce8:	01 e0       	ldi	r16, 0x01	; 1
    1cea:	10 e0       	ldi	r17, 0x00	; 0
    1cec:	63 01       	movw	r12, r6
    1cee:	12 c0       	rjmp	.+36     	; 0x1d14 <vfprintf+0x42c>
    1cf0:	56 01       	movw	r10, r12
    1cf2:	f2 e0       	ldi	r31, 0x02	; 2
    1cf4:	af 0e       	add	r10, r31
    1cf6:	b1 1c       	adc	r11, r1
    1cf8:	f6 01       	movw	r30, r12
    1cfa:	c0 80       	ld	r12, Z
    1cfc:	d1 80       	ldd	r13, Z+1	; 0x01
    1cfe:	96 fe       	sbrs	r9, 6
    1d00:	03 c0       	rjmp	.+6      	; 0x1d08 <vfprintf+0x420>
    1d02:	61 2f       	mov	r22, r17
    1d04:	70 e0       	ldi	r23, 0x00	; 0
    1d06:	02 c0       	rjmp	.+4      	; 0x1d0c <vfprintf+0x424>
    1d08:	6f ef       	ldi	r22, 0xFF	; 255
    1d0a:	7f ef       	ldi	r23, 0xFF	; 255
    1d0c:	c6 01       	movw	r24, r12
    1d0e:	0e 94 0b 12 	call	0x2416	; 0x2416 <strnlen>
    1d12:	8c 01       	movw	r16, r24
    1d14:	f9 2d       	mov	r31, r9
    1d16:	ff 77       	andi	r31, 0x7F	; 127
    1d18:	14 c0       	rjmp	.+40     	; 0x1d42 <vfprintf+0x45a>
    1d1a:	56 01       	movw	r10, r12
    1d1c:	22 e0       	ldi	r18, 0x02	; 2
    1d1e:	a2 0e       	add	r10, r18
    1d20:	b1 1c       	adc	r11, r1
    1d22:	f6 01       	movw	r30, r12
    1d24:	c0 80       	ld	r12, Z
    1d26:	d1 80       	ldd	r13, Z+1	; 0x01
    1d28:	96 fe       	sbrs	r9, 6
    1d2a:	03 c0       	rjmp	.+6      	; 0x1d32 <vfprintf+0x44a>
    1d2c:	61 2f       	mov	r22, r17
    1d2e:	70 e0       	ldi	r23, 0x00	; 0
    1d30:	02 c0       	rjmp	.+4      	; 0x1d36 <vfprintf+0x44e>
    1d32:	6f ef       	ldi	r22, 0xFF	; 255
    1d34:	7f ef       	ldi	r23, 0xFF	; 255
    1d36:	c6 01       	movw	r24, r12
    1d38:	0e 94 f7 11 	call	0x23ee	; 0x23ee <strnlen_P>
    1d3c:	8c 01       	movw	r16, r24
    1d3e:	f9 2d       	mov	r31, r9
    1d40:	f0 68       	ori	r31, 0x80	; 128
    1d42:	9f 2e       	mov	r9, r31
    1d44:	f3 fd       	sbrc	r31, 3
    1d46:	1a c0       	rjmp	.+52     	; 0x1d7c <vfprintf+0x494>
    1d48:	85 2d       	mov	r24, r5
    1d4a:	90 e0       	ldi	r25, 0x00	; 0
    1d4c:	08 17       	cp	r16, r24
    1d4e:	19 07       	cpc	r17, r25
    1d50:	a8 f4       	brcc	.+42     	; 0x1d7c <vfprintf+0x494>
    1d52:	b7 01       	movw	r22, r14
    1d54:	80 e2       	ldi	r24, 0x20	; 32
    1d56:	90 e0       	ldi	r25, 0x00	; 0
    1d58:	0e 94 16 12 	call	0x242c	; 0x242c <fputc>
    1d5c:	5a 94       	dec	r5
    1d5e:	f4 cf       	rjmp	.-24     	; 0x1d48 <vfprintf+0x460>
    1d60:	f6 01       	movw	r30, r12
    1d62:	97 fc       	sbrc	r9, 7
    1d64:	85 91       	lpm	r24, Z+
    1d66:	97 fe       	sbrs	r9, 7
    1d68:	81 91       	ld	r24, Z+
    1d6a:	6f 01       	movw	r12, r30
    1d6c:	b7 01       	movw	r22, r14
    1d6e:	90 e0       	ldi	r25, 0x00	; 0
    1d70:	0e 94 16 12 	call	0x242c	; 0x242c <fputc>
    1d74:	51 10       	cpse	r5, r1
    1d76:	5a 94       	dec	r5
    1d78:	01 50       	subi	r16, 0x01	; 1
    1d7a:	11 09       	sbc	r17, r1
    1d7c:	01 15       	cp	r16, r1
    1d7e:	11 05       	cpc	r17, r1
    1d80:	79 f7       	brne	.-34     	; 0x1d60 <vfprintf+0x478>
    1d82:	f7 c0       	rjmp	.+494    	; 0x1f72 <vfprintf+0x68a>
    1d84:	84 36       	cpi	r24, 0x64	; 100
    1d86:	11 f0       	breq	.+4      	; 0x1d8c <vfprintf+0x4a4>
    1d88:	89 36       	cpi	r24, 0x69	; 105
    1d8a:	61 f5       	brne	.+88     	; 0x1de4 <vfprintf+0x4fc>
    1d8c:	56 01       	movw	r10, r12
    1d8e:	97 fe       	sbrs	r9, 7
    1d90:	09 c0       	rjmp	.+18     	; 0x1da4 <vfprintf+0x4bc>
    1d92:	24 e0       	ldi	r18, 0x04	; 4
    1d94:	a2 0e       	add	r10, r18
    1d96:	b1 1c       	adc	r11, r1
    1d98:	f6 01       	movw	r30, r12
    1d9a:	60 81       	ld	r22, Z
    1d9c:	71 81       	ldd	r23, Z+1	; 0x01
    1d9e:	82 81       	ldd	r24, Z+2	; 0x02
    1da0:	93 81       	ldd	r25, Z+3	; 0x03
    1da2:	0a c0       	rjmp	.+20     	; 0x1db8 <vfprintf+0x4d0>
    1da4:	f2 e0       	ldi	r31, 0x02	; 2
    1da6:	af 0e       	add	r10, r31
    1da8:	b1 1c       	adc	r11, r1
    1daa:	f6 01       	movw	r30, r12
    1dac:	60 81       	ld	r22, Z
    1dae:	71 81       	ldd	r23, Z+1	; 0x01
    1db0:	07 2e       	mov	r0, r23
    1db2:	00 0c       	add	r0, r0
    1db4:	88 0b       	sbc	r24, r24
    1db6:	99 0b       	sbc	r25, r25
    1db8:	f9 2d       	mov	r31, r9
    1dba:	ff 76       	andi	r31, 0x6F	; 111
    1dbc:	9f 2e       	mov	r9, r31
    1dbe:	97 ff       	sbrs	r25, 7
    1dc0:	09 c0       	rjmp	.+18     	; 0x1dd4 <vfprintf+0x4ec>
    1dc2:	90 95       	com	r25
    1dc4:	80 95       	com	r24
    1dc6:	70 95       	com	r23
    1dc8:	61 95       	neg	r22
    1dca:	7f 4f       	sbci	r23, 0xFF	; 255
    1dcc:	8f 4f       	sbci	r24, 0xFF	; 255
    1dce:	9f 4f       	sbci	r25, 0xFF	; 255
    1dd0:	f0 68       	ori	r31, 0x80	; 128
    1dd2:	9f 2e       	mov	r9, r31
    1dd4:	2a e0       	ldi	r18, 0x0A	; 10
    1dd6:	30 e0       	ldi	r19, 0x00	; 0
    1dd8:	a3 01       	movw	r20, r6
    1dda:	0e 94 74 12 	call	0x24e8	; 0x24e8 <__ultoa_invert>
    1dde:	c8 2e       	mov	r12, r24
    1de0:	c6 18       	sub	r12, r6
    1de2:	3f c0       	rjmp	.+126    	; 0x1e62 <vfprintf+0x57a>
    1de4:	09 2d       	mov	r16, r9
    1de6:	85 37       	cpi	r24, 0x75	; 117
    1de8:	21 f4       	brne	.+8      	; 0x1df2 <vfprintf+0x50a>
    1dea:	0f 7e       	andi	r16, 0xEF	; 239
    1dec:	2a e0       	ldi	r18, 0x0A	; 10
    1dee:	30 e0       	ldi	r19, 0x00	; 0
    1df0:	1d c0       	rjmp	.+58     	; 0x1e2c <vfprintf+0x544>
    1df2:	09 7f       	andi	r16, 0xF9	; 249
    1df4:	8f 36       	cpi	r24, 0x6F	; 111
    1df6:	91 f0       	breq	.+36     	; 0x1e1c <vfprintf+0x534>
    1df8:	18 f4       	brcc	.+6      	; 0x1e00 <vfprintf+0x518>
    1dfa:	88 35       	cpi	r24, 0x58	; 88
    1dfc:	59 f0       	breq	.+22     	; 0x1e14 <vfprintf+0x52c>
    1dfe:	c3 c0       	rjmp	.+390    	; 0x1f86 <vfprintf+0x69e>
    1e00:	80 37       	cpi	r24, 0x70	; 112
    1e02:	19 f0       	breq	.+6      	; 0x1e0a <vfprintf+0x522>
    1e04:	88 37       	cpi	r24, 0x78	; 120
    1e06:	11 f0       	breq	.+4      	; 0x1e0c <vfprintf+0x524>
    1e08:	be c0       	rjmp	.+380    	; 0x1f86 <vfprintf+0x69e>
    1e0a:	00 61       	ori	r16, 0x10	; 16
    1e0c:	04 ff       	sbrs	r16, 4
    1e0e:	09 c0       	rjmp	.+18     	; 0x1e22 <vfprintf+0x53a>
    1e10:	04 60       	ori	r16, 0x04	; 4
    1e12:	07 c0       	rjmp	.+14     	; 0x1e22 <vfprintf+0x53a>
    1e14:	94 fe       	sbrs	r9, 4
    1e16:	08 c0       	rjmp	.+16     	; 0x1e28 <vfprintf+0x540>
    1e18:	06 60       	ori	r16, 0x06	; 6
    1e1a:	06 c0       	rjmp	.+12     	; 0x1e28 <vfprintf+0x540>
    1e1c:	28 e0       	ldi	r18, 0x08	; 8
    1e1e:	30 e0       	ldi	r19, 0x00	; 0
    1e20:	05 c0       	rjmp	.+10     	; 0x1e2c <vfprintf+0x544>
    1e22:	20 e1       	ldi	r18, 0x10	; 16
    1e24:	30 e0       	ldi	r19, 0x00	; 0
    1e26:	02 c0       	rjmp	.+4      	; 0x1e2c <vfprintf+0x544>
    1e28:	20 e1       	ldi	r18, 0x10	; 16
    1e2a:	32 e0       	ldi	r19, 0x02	; 2
    1e2c:	56 01       	movw	r10, r12
    1e2e:	07 ff       	sbrs	r16, 7
    1e30:	09 c0       	rjmp	.+18     	; 0x1e44 <vfprintf+0x55c>
    1e32:	84 e0       	ldi	r24, 0x04	; 4
    1e34:	a8 0e       	add	r10, r24
    1e36:	b1 1c       	adc	r11, r1
    1e38:	f6 01       	movw	r30, r12
    1e3a:	60 81       	ld	r22, Z
    1e3c:	71 81       	ldd	r23, Z+1	; 0x01
    1e3e:	82 81       	ldd	r24, Z+2	; 0x02
    1e40:	93 81       	ldd	r25, Z+3	; 0x03
    1e42:	08 c0       	rjmp	.+16     	; 0x1e54 <vfprintf+0x56c>
    1e44:	f2 e0       	ldi	r31, 0x02	; 2
    1e46:	af 0e       	add	r10, r31
    1e48:	b1 1c       	adc	r11, r1
    1e4a:	f6 01       	movw	r30, r12
    1e4c:	60 81       	ld	r22, Z
    1e4e:	71 81       	ldd	r23, Z+1	; 0x01
    1e50:	80 e0       	ldi	r24, 0x00	; 0
    1e52:	90 e0       	ldi	r25, 0x00	; 0
    1e54:	a3 01       	movw	r20, r6
    1e56:	0e 94 74 12 	call	0x24e8	; 0x24e8 <__ultoa_invert>
    1e5a:	c8 2e       	mov	r12, r24
    1e5c:	c6 18       	sub	r12, r6
    1e5e:	0f 77       	andi	r16, 0x7F	; 127
    1e60:	90 2e       	mov	r9, r16
    1e62:	96 fe       	sbrs	r9, 6
    1e64:	0b c0       	rjmp	.+22     	; 0x1e7c <vfprintf+0x594>
    1e66:	09 2d       	mov	r16, r9
    1e68:	0e 7f       	andi	r16, 0xFE	; 254
    1e6a:	c1 16       	cp	r12, r17
    1e6c:	50 f4       	brcc	.+20     	; 0x1e82 <vfprintf+0x59a>
    1e6e:	94 fe       	sbrs	r9, 4
    1e70:	0a c0       	rjmp	.+20     	; 0x1e86 <vfprintf+0x59e>
    1e72:	92 fc       	sbrc	r9, 2
    1e74:	08 c0       	rjmp	.+16     	; 0x1e86 <vfprintf+0x59e>
    1e76:	09 2d       	mov	r16, r9
    1e78:	0e 7e       	andi	r16, 0xEE	; 238
    1e7a:	05 c0       	rjmp	.+10     	; 0x1e86 <vfprintf+0x59e>
    1e7c:	dc 2c       	mov	r13, r12
    1e7e:	09 2d       	mov	r16, r9
    1e80:	03 c0       	rjmp	.+6      	; 0x1e88 <vfprintf+0x5a0>
    1e82:	dc 2c       	mov	r13, r12
    1e84:	01 c0       	rjmp	.+2      	; 0x1e88 <vfprintf+0x5a0>
    1e86:	d1 2e       	mov	r13, r17
    1e88:	04 ff       	sbrs	r16, 4
    1e8a:	0d c0       	rjmp	.+26     	; 0x1ea6 <vfprintf+0x5be>
    1e8c:	fe 01       	movw	r30, r28
    1e8e:	ec 0d       	add	r30, r12
    1e90:	f1 1d       	adc	r31, r1
    1e92:	80 81       	ld	r24, Z
    1e94:	80 33       	cpi	r24, 0x30	; 48
    1e96:	11 f4       	brne	.+4      	; 0x1e9c <vfprintf+0x5b4>
    1e98:	09 7e       	andi	r16, 0xE9	; 233
    1e9a:	09 c0       	rjmp	.+18     	; 0x1eae <vfprintf+0x5c6>
    1e9c:	02 ff       	sbrs	r16, 2
    1e9e:	06 c0       	rjmp	.+12     	; 0x1eac <vfprintf+0x5c4>
    1ea0:	d3 94       	inc	r13
    1ea2:	d3 94       	inc	r13
    1ea4:	04 c0       	rjmp	.+8      	; 0x1eae <vfprintf+0x5c6>
    1ea6:	80 2f       	mov	r24, r16
    1ea8:	86 78       	andi	r24, 0x86	; 134
    1eaa:	09 f0       	breq	.+2      	; 0x1eae <vfprintf+0x5c6>
    1eac:	d3 94       	inc	r13
    1eae:	03 fd       	sbrc	r16, 3
    1eb0:	11 c0       	rjmp	.+34     	; 0x1ed4 <vfprintf+0x5ec>
    1eb2:	00 ff       	sbrs	r16, 0
    1eb4:	06 c0       	rjmp	.+12     	; 0x1ec2 <vfprintf+0x5da>
    1eb6:	1c 2d       	mov	r17, r12
    1eb8:	d5 14       	cp	r13, r5
    1eba:	80 f4       	brcc	.+32     	; 0x1edc <vfprintf+0x5f4>
    1ebc:	15 0d       	add	r17, r5
    1ebe:	1d 19       	sub	r17, r13
    1ec0:	0d c0       	rjmp	.+26     	; 0x1edc <vfprintf+0x5f4>
    1ec2:	d5 14       	cp	r13, r5
    1ec4:	58 f4       	brcc	.+22     	; 0x1edc <vfprintf+0x5f4>
    1ec6:	b7 01       	movw	r22, r14
    1ec8:	80 e2       	ldi	r24, 0x20	; 32
    1eca:	90 e0       	ldi	r25, 0x00	; 0
    1ecc:	0e 94 16 12 	call	0x242c	; 0x242c <fputc>
    1ed0:	d3 94       	inc	r13
    1ed2:	f7 cf       	rjmp	.-18     	; 0x1ec2 <vfprintf+0x5da>
    1ed4:	d5 14       	cp	r13, r5
    1ed6:	10 f4       	brcc	.+4      	; 0x1edc <vfprintf+0x5f4>
    1ed8:	5d 18       	sub	r5, r13
    1eda:	01 c0       	rjmp	.+2      	; 0x1ede <vfprintf+0x5f6>
    1edc:	51 2c       	mov	r5, r1
    1ede:	04 ff       	sbrs	r16, 4
    1ee0:	10 c0       	rjmp	.+32     	; 0x1f02 <vfprintf+0x61a>
    1ee2:	b7 01       	movw	r22, r14
    1ee4:	80 e3       	ldi	r24, 0x30	; 48
    1ee6:	90 e0       	ldi	r25, 0x00	; 0
    1ee8:	0e 94 16 12 	call	0x242c	; 0x242c <fputc>
    1eec:	02 ff       	sbrs	r16, 2
    1eee:	17 c0       	rjmp	.+46     	; 0x1f1e <vfprintf+0x636>
    1ef0:	01 fd       	sbrc	r16, 1
    1ef2:	03 c0       	rjmp	.+6      	; 0x1efa <vfprintf+0x612>
    1ef4:	88 e7       	ldi	r24, 0x78	; 120
    1ef6:	90 e0       	ldi	r25, 0x00	; 0
    1ef8:	02 c0       	rjmp	.+4      	; 0x1efe <vfprintf+0x616>
    1efa:	88 e5       	ldi	r24, 0x58	; 88
    1efc:	90 e0       	ldi	r25, 0x00	; 0
    1efe:	b7 01       	movw	r22, r14
    1f00:	0c c0       	rjmp	.+24     	; 0x1f1a <vfprintf+0x632>
    1f02:	80 2f       	mov	r24, r16
    1f04:	86 78       	andi	r24, 0x86	; 134
    1f06:	59 f0       	breq	.+22     	; 0x1f1e <vfprintf+0x636>
    1f08:	01 ff       	sbrs	r16, 1
    1f0a:	02 c0       	rjmp	.+4      	; 0x1f10 <vfprintf+0x628>
    1f0c:	8b e2       	ldi	r24, 0x2B	; 43
    1f0e:	01 c0       	rjmp	.+2      	; 0x1f12 <vfprintf+0x62a>
    1f10:	80 e2       	ldi	r24, 0x20	; 32
    1f12:	07 fd       	sbrc	r16, 7
    1f14:	8d e2       	ldi	r24, 0x2D	; 45
    1f16:	b7 01       	movw	r22, r14
    1f18:	90 e0       	ldi	r25, 0x00	; 0
    1f1a:	0e 94 16 12 	call	0x242c	; 0x242c <fputc>
    1f1e:	c1 16       	cp	r12, r17
    1f20:	38 f4       	brcc	.+14     	; 0x1f30 <vfprintf+0x648>
    1f22:	b7 01       	movw	r22, r14
    1f24:	80 e3       	ldi	r24, 0x30	; 48
    1f26:	90 e0       	ldi	r25, 0x00	; 0
    1f28:	0e 94 16 12 	call	0x242c	; 0x242c <fputc>
    1f2c:	11 50       	subi	r17, 0x01	; 1
    1f2e:	f7 cf       	rjmp	.-18     	; 0x1f1e <vfprintf+0x636>
    1f30:	ca 94       	dec	r12
    1f32:	f3 01       	movw	r30, r6
    1f34:	ec 0d       	add	r30, r12
    1f36:	f1 1d       	adc	r31, r1
    1f38:	80 81       	ld	r24, Z
    1f3a:	b7 01       	movw	r22, r14
    1f3c:	90 e0       	ldi	r25, 0x00	; 0
    1f3e:	0e 94 16 12 	call	0x242c	; 0x242c <fputc>
    1f42:	c1 10       	cpse	r12, r1
    1f44:	f5 cf       	rjmp	.-22     	; 0x1f30 <vfprintf+0x648>
    1f46:	15 c0       	rjmp	.+42     	; 0x1f72 <vfprintf+0x68a>
    1f48:	f4 e0       	ldi	r31, 0x04	; 4
    1f4a:	f5 15       	cp	r31, r5
    1f4c:	60 f5       	brcc	.+88     	; 0x1fa6 <vfprintf+0x6be>
    1f4e:	84 e0       	ldi	r24, 0x04	; 4
    1f50:	58 1a       	sub	r5, r24
    1f52:	93 fe       	sbrs	r9, 3
    1f54:	1f c0       	rjmp	.+62     	; 0x1f94 <vfprintf+0x6ac>
    1f56:	01 11       	cpse	r16, r1
    1f58:	27 c0       	rjmp	.+78     	; 0x1fa8 <vfprintf+0x6c0>
    1f5a:	2c 85       	ldd	r18, Y+12	; 0x0c
    1f5c:	23 ff       	sbrs	r18, 3
    1f5e:	2a c0       	rjmp	.+84     	; 0x1fb4 <vfprintf+0x6cc>
    1f60:	08 e6       	ldi	r16, 0x68	; 104
    1f62:	10 e0       	ldi	r17, 0x00	; 0
    1f64:	39 2d       	mov	r19, r9
    1f66:	30 71       	andi	r19, 0x10	; 16
    1f68:	93 2e       	mov	r9, r19
    1f6a:	f8 01       	movw	r30, r16
    1f6c:	84 91       	lpm	r24, Z
    1f6e:	81 11       	cpse	r24, r1
    1f70:	24 c0       	rjmp	.+72     	; 0x1fba <vfprintf+0x6d2>
    1f72:	55 20       	and	r5, r5
    1f74:	09 f4       	brne	.+2      	; 0x1f78 <vfprintf+0x690>
    1f76:	e4 cc       	rjmp	.-1592   	; 0x1940 <vfprintf+0x58>
    1f78:	b7 01       	movw	r22, r14
    1f7a:	80 e2       	ldi	r24, 0x20	; 32
    1f7c:	90 e0       	ldi	r25, 0x00	; 0
    1f7e:	0e 94 16 12 	call	0x242c	; 0x242c <fputc>
    1f82:	5a 94       	dec	r5
    1f84:	f6 cf       	rjmp	.-20     	; 0x1f72 <vfprintf+0x68a>
    1f86:	f7 01       	movw	r30, r14
    1f88:	86 81       	ldd	r24, Z+6	; 0x06
    1f8a:	97 81       	ldd	r25, Z+7	; 0x07
    1f8c:	26 c0       	rjmp	.+76     	; 0x1fda <vfprintf+0x6f2>
    1f8e:	8f ef       	ldi	r24, 0xFF	; 255
    1f90:	9f ef       	ldi	r25, 0xFF	; 255
    1f92:	23 c0       	rjmp	.+70     	; 0x1fda <vfprintf+0x6f2>
    1f94:	b7 01       	movw	r22, r14
    1f96:	80 e2       	ldi	r24, 0x20	; 32
    1f98:	90 e0       	ldi	r25, 0x00	; 0
    1f9a:	0e 94 16 12 	call	0x242c	; 0x242c <fputc>
    1f9e:	5a 94       	dec	r5
    1fa0:	51 10       	cpse	r5, r1
    1fa2:	f8 cf       	rjmp	.-16     	; 0x1f94 <vfprintf+0x6ac>
    1fa4:	d8 cf       	rjmp	.-80     	; 0x1f56 <vfprintf+0x66e>
    1fa6:	51 2c       	mov	r5, r1
    1fa8:	b7 01       	movw	r22, r14
    1faa:	80 2f       	mov	r24, r16
    1fac:	90 e0       	ldi	r25, 0x00	; 0
    1fae:	0e 94 16 12 	call	0x242c	; 0x242c <fputc>
    1fb2:	d3 cf       	rjmp	.-90     	; 0x1f5a <vfprintf+0x672>
    1fb4:	0c e6       	ldi	r16, 0x6C	; 108
    1fb6:	10 e0       	ldi	r17, 0x00	; 0
    1fb8:	d5 cf       	rjmp	.-86     	; 0x1f64 <vfprintf+0x67c>
    1fba:	91 10       	cpse	r9, r1
    1fbc:	80 52       	subi	r24, 0x20	; 32
    1fbe:	b7 01       	movw	r22, r14
    1fc0:	90 e0       	ldi	r25, 0x00	; 0
    1fc2:	0e 94 16 12 	call	0x242c	; 0x242c <fputc>
    1fc6:	0f 5f       	subi	r16, 0xFF	; 255
    1fc8:	1f 4f       	sbci	r17, 0xFF	; 255
    1fca:	cf cf       	rjmp	.-98     	; 0x1f6a <vfprintf+0x682>
    1fcc:	23 e0       	ldi	r18, 0x03	; 3
    1fce:	25 15       	cp	r18, r5
    1fd0:	10 f4       	brcc	.+4      	; 0x1fd6 <vfprintf+0x6ee>
    1fd2:	83 e0       	ldi	r24, 0x03	; 3
    1fd4:	bd cf       	rjmp	.-134    	; 0x1f50 <vfprintf+0x668>
    1fd6:	51 2c       	mov	r5, r1
    1fd8:	c0 cf       	rjmp	.-128    	; 0x1f5a <vfprintf+0x672>
    1fda:	60 96       	adiw	r28, 0x10	; 16
    1fdc:	e2 e1       	ldi	r30, 0x12	; 18
    1fde:	0c 94 9d 10 	jmp	0x213a	; 0x213a <__epilogue_restores__>

00001fe2 <__udivmodsi4>:
    1fe2:	a1 e2       	ldi	r26, 0x21	; 33
    1fe4:	1a 2e       	mov	r1, r26
    1fe6:	aa 1b       	sub	r26, r26
    1fe8:	bb 1b       	sub	r27, r27
    1fea:	fd 01       	movw	r30, r26
    1fec:	0d c0       	rjmp	.+26     	; 0x2008 <__udivmodsi4_ep>

00001fee <__udivmodsi4_loop>:
    1fee:	aa 1f       	adc	r26, r26
    1ff0:	bb 1f       	adc	r27, r27
    1ff2:	ee 1f       	adc	r30, r30
    1ff4:	ff 1f       	adc	r31, r31
    1ff6:	a2 17       	cp	r26, r18
    1ff8:	b3 07       	cpc	r27, r19
    1ffa:	e4 07       	cpc	r30, r20
    1ffc:	f5 07       	cpc	r31, r21
    1ffe:	20 f0       	brcs	.+8      	; 0x2008 <__udivmodsi4_ep>
    2000:	a2 1b       	sub	r26, r18
    2002:	b3 0b       	sbc	r27, r19
    2004:	e4 0b       	sbc	r30, r20
    2006:	f5 0b       	sbc	r31, r21

00002008 <__udivmodsi4_ep>:
    2008:	66 1f       	adc	r22, r22
    200a:	77 1f       	adc	r23, r23
    200c:	88 1f       	adc	r24, r24
    200e:	99 1f       	adc	r25, r25
    2010:	1a 94       	dec	r1
    2012:	69 f7       	brne	.-38     	; 0x1fee <__udivmodsi4_loop>
    2014:	60 95       	com	r22
    2016:	70 95       	com	r23
    2018:	80 95       	com	r24
    201a:	90 95       	com	r25
    201c:	9b 01       	movw	r18, r22
    201e:	ac 01       	movw	r20, r24
    2020:	bd 01       	movw	r22, r26
    2022:	cf 01       	movw	r24, r30
    2024:	08 95       	ret

00002026 <__umulhisi3>:
    2026:	a2 9f       	mul	r26, r18
    2028:	b0 01       	movw	r22, r0
    202a:	b3 9f       	mul	r27, r19
    202c:	c0 01       	movw	r24, r0
    202e:	a3 9f       	mul	r26, r19
    2030:	70 0d       	add	r23, r0
    2032:	81 1d       	adc	r24, r1
    2034:	11 24       	eor	r1, r1
    2036:	91 1d       	adc	r25, r1
    2038:	b2 9f       	mul	r27, r18
    203a:	70 0d       	add	r23, r0
    203c:	81 1d       	adc	r24, r1
    203e:	11 24       	eor	r1, r1
    2040:	91 1d       	adc	r25, r1
    2042:	08 95       	ret

00002044 <__umoddi3>:
    2044:	68 94       	set
    2046:	01 c0       	rjmp	.+2      	; 0x204a <__udivdi3_umoddi3>

00002048 <__udivdi3>:
    2048:	e8 94       	clt

0000204a <__udivdi3_umoddi3>:
    204a:	8f 92       	push	r8
    204c:	9f 92       	push	r9
    204e:	cf 93       	push	r28
    2050:	df 93       	push	r29
    2052:	0e 94 30 10 	call	0x2060	; 0x2060 <__udivmod64>
    2056:	df 91       	pop	r29
    2058:	cf 91       	pop	r28
    205a:	9f 90       	pop	r9
    205c:	8f 90       	pop	r8
    205e:	08 95       	ret

00002060 <__udivmod64>:
    2060:	88 24       	eor	r8, r8
    2062:	99 24       	eor	r9, r9
    2064:	f4 01       	movw	r30, r8
    2066:	e4 01       	movw	r28, r8
    2068:	b0 e4       	ldi	r27, 0x40	; 64
    206a:	9f 93       	push	r25
    206c:	aa 27       	eor	r26, r26
    206e:	9a 15       	cp	r25, r10
    2070:	8b 04       	cpc	r8, r11
    2072:	9c 04       	cpc	r9, r12
    2074:	ed 05       	cpc	r30, r13
    2076:	fe 05       	cpc	r31, r14
    2078:	cf 05       	cpc	r28, r15
    207a:	d0 07       	cpc	r29, r16
    207c:	a1 07       	cpc	r26, r17
    207e:	98 f4       	brcc	.+38     	; 0x20a6 <__udivmod64+0x46>
    2080:	ad 2f       	mov	r26, r29
    2082:	dc 2f       	mov	r29, r28
    2084:	cf 2f       	mov	r28, r31
    2086:	fe 2f       	mov	r31, r30
    2088:	e9 2d       	mov	r30, r9
    208a:	98 2c       	mov	r9, r8
    208c:	89 2e       	mov	r8, r25
    208e:	98 2f       	mov	r25, r24
    2090:	87 2f       	mov	r24, r23
    2092:	76 2f       	mov	r23, r22
    2094:	65 2f       	mov	r22, r21
    2096:	54 2f       	mov	r21, r20
    2098:	43 2f       	mov	r20, r19
    209a:	32 2f       	mov	r19, r18
    209c:	22 27       	eor	r18, r18
    209e:	b8 50       	subi	r27, 0x08	; 8
    20a0:	31 f7       	brne	.-52     	; 0x206e <__udivmod64+0xe>
    20a2:	bf 91       	pop	r27
    20a4:	27 c0       	rjmp	.+78     	; 0x20f4 <__udivmod64+0x94>
    20a6:	1b 2e       	mov	r1, r27
    20a8:	bf 91       	pop	r27
    20aa:	bb 27       	eor	r27, r27
    20ac:	22 0f       	add	r18, r18
    20ae:	33 1f       	adc	r19, r19
    20b0:	44 1f       	adc	r20, r20
    20b2:	55 1f       	adc	r21, r21
    20b4:	66 1f       	adc	r22, r22
    20b6:	77 1f       	adc	r23, r23
    20b8:	88 1f       	adc	r24, r24
    20ba:	99 1f       	adc	r25, r25
    20bc:	88 1c       	adc	r8, r8
    20be:	99 1c       	adc	r9, r9
    20c0:	ee 1f       	adc	r30, r30
    20c2:	ff 1f       	adc	r31, r31
    20c4:	cc 1f       	adc	r28, r28
    20c6:	dd 1f       	adc	r29, r29
    20c8:	aa 1f       	adc	r26, r26
    20ca:	bb 1f       	adc	r27, r27
    20cc:	8a 14       	cp	r8, r10
    20ce:	9b 04       	cpc	r9, r11
    20d0:	ec 05       	cpc	r30, r12
    20d2:	fd 05       	cpc	r31, r13
    20d4:	ce 05       	cpc	r28, r14
    20d6:	df 05       	cpc	r29, r15
    20d8:	a0 07       	cpc	r26, r16
    20da:	b1 07       	cpc	r27, r17
    20dc:	48 f0       	brcs	.+18     	; 0x20f0 <__udivmod64+0x90>
    20de:	8a 18       	sub	r8, r10
    20e0:	9b 08       	sbc	r9, r11
    20e2:	ec 09       	sbc	r30, r12
    20e4:	fd 09       	sbc	r31, r13
    20e6:	ce 09       	sbc	r28, r14
    20e8:	df 09       	sbc	r29, r15
    20ea:	a0 0b       	sbc	r26, r16
    20ec:	b1 0b       	sbc	r27, r17
    20ee:	21 60       	ori	r18, 0x01	; 1
    20f0:	1a 94       	dec	r1
    20f2:	e1 f6       	brne	.-72     	; 0x20ac <__udivmod64+0x4c>
    20f4:	2e f4       	brtc	.+10     	; 0x2100 <__udivmod64+0xa0>
    20f6:	94 01       	movw	r18, r8
    20f8:	af 01       	movw	r20, r30
    20fa:	be 01       	movw	r22, r28
    20fc:	cd 01       	movw	r24, r26
    20fe:	00 0c       	add	r0, r0
    2100:	08 95       	ret

00002102 <__prologue_saves__>:
    2102:	2f 92       	push	r2
    2104:	3f 92       	push	r3
    2106:	4f 92       	push	r4
    2108:	5f 92       	push	r5
    210a:	6f 92       	push	r6
    210c:	7f 92       	push	r7
    210e:	8f 92       	push	r8
    2110:	9f 92       	push	r9
    2112:	af 92       	push	r10
    2114:	bf 92       	push	r11
    2116:	cf 92       	push	r12
    2118:	df 92       	push	r13
    211a:	ef 92       	push	r14
    211c:	ff 92       	push	r15
    211e:	0f 93       	push	r16
    2120:	1f 93       	push	r17
    2122:	cf 93       	push	r28
    2124:	df 93       	push	r29
    2126:	cd b7       	in	r28, 0x3d	; 61
    2128:	de b7       	in	r29, 0x3e	; 62
    212a:	ca 1b       	sub	r28, r26
    212c:	db 0b       	sbc	r29, r27
    212e:	0f b6       	in	r0, 0x3f	; 63
    2130:	f8 94       	cli
    2132:	de bf       	out	0x3e, r29	; 62
    2134:	0f be       	out	0x3f, r0	; 63
    2136:	cd bf       	out	0x3d, r28	; 61
    2138:	09 94       	ijmp

0000213a <__epilogue_restores__>:
    213a:	2a 88       	ldd	r2, Y+18	; 0x12
    213c:	39 88       	ldd	r3, Y+17	; 0x11
    213e:	48 88       	ldd	r4, Y+16	; 0x10
    2140:	5f 84       	ldd	r5, Y+15	; 0x0f
    2142:	6e 84       	ldd	r6, Y+14	; 0x0e
    2144:	7d 84       	ldd	r7, Y+13	; 0x0d
    2146:	8c 84       	ldd	r8, Y+12	; 0x0c
    2148:	9b 84       	ldd	r9, Y+11	; 0x0b
    214a:	aa 84       	ldd	r10, Y+10	; 0x0a
    214c:	b9 84       	ldd	r11, Y+9	; 0x09
    214e:	c8 84       	ldd	r12, Y+8	; 0x08
    2150:	df 80       	ldd	r13, Y+7	; 0x07
    2152:	ee 80       	ldd	r14, Y+6	; 0x06
    2154:	fd 80       	ldd	r15, Y+5	; 0x05
    2156:	0c 81       	ldd	r16, Y+4	; 0x04
    2158:	1b 81       	ldd	r17, Y+3	; 0x03
    215a:	aa 81       	ldd	r26, Y+2	; 0x02
    215c:	b9 81       	ldd	r27, Y+1	; 0x01
    215e:	ce 0f       	add	r28, r30
    2160:	d1 1d       	adc	r29, r1
    2162:	0f b6       	in	r0, 0x3f	; 63
    2164:	f8 94       	cli
    2166:	de bf       	out	0x3e, r29	; 62
    2168:	0f be       	out	0x3f, r0	; 63
    216a:	cd bf       	out	0x3d, r28	; 61
    216c:	ed 01       	movw	r28, r26
    216e:	08 95       	ret

00002170 <__ashldi3>:
    2170:	0f 93       	push	r16
    2172:	08 30       	cpi	r16, 0x08	; 8
    2174:	90 f0       	brcs	.+36     	; 0x219a <__ashldi3+0x2a>
    2176:	98 2f       	mov	r25, r24
    2178:	87 2f       	mov	r24, r23
    217a:	76 2f       	mov	r23, r22
    217c:	65 2f       	mov	r22, r21
    217e:	54 2f       	mov	r21, r20
    2180:	43 2f       	mov	r20, r19
    2182:	32 2f       	mov	r19, r18
    2184:	22 27       	eor	r18, r18
    2186:	08 50       	subi	r16, 0x08	; 8
    2188:	f4 cf       	rjmp	.-24     	; 0x2172 <__ashldi3+0x2>
    218a:	22 0f       	add	r18, r18
    218c:	33 1f       	adc	r19, r19
    218e:	44 1f       	adc	r20, r20
    2190:	55 1f       	adc	r21, r21
    2192:	66 1f       	adc	r22, r22
    2194:	77 1f       	adc	r23, r23
    2196:	88 1f       	adc	r24, r24
    2198:	99 1f       	adc	r25, r25
    219a:	0a 95       	dec	r16
    219c:	b2 f7       	brpl	.-20     	; 0x218a <__ashldi3+0x1a>
    219e:	0f 91       	pop	r16
    21a0:	08 95       	ret

000021a2 <__ashrdi3>:
    21a2:	97 fb       	bst	r25, 7
    21a4:	10 f8       	bld	r1, 0

000021a6 <__lshrdi3>:
    21a6:	16 94       	lsr	r1
    21a8:	00 08       	sbc	r0, r0
    21aa:	0f 93       	push	r16
    21ac:	08 30       	cpi	r16, 0x08	; 8
    21ae:	98 f0       	brcs	.+38     	; 0x21d6 <__lshrdi3+0x30>
    21b0:	08 50       	subi	r16, 0x08	; 8
    21b2:	23 2f       	mov	r18, r19
    21b4:	34 2f       	mov	r19, r20
    21b6:	45 2f       	mov	r20, r21
    21b8:	56 2f       	mov	r21, r22
    21ba:	67 2f       	mov	r22, r23
    21bc:	78 2f       	mov	r23, r24
    21be:	89 2f       	mov	r24, r25
    21c0:	90 2d       	mov	r25, r0
    21c2:	f4 cf       	rjmp	.-24     	; 0x21ac <__lshrdi3+0x6>
    21c4:	05 94       	asr	r0
    21c6:	97 95       	ror	r25
    21c8:	87 95       	ror	r24
    21ca:	77 95       	ror	r23
    21cc:	67 95       	ror	r22
    21ce:	57 95       	ror	r21
    21d0:	47 95       	ror	r20
    21d2:	37 95       	ror	r19
    21d4:	27 95       	ror	r18
    21d6:	0a 95       	dec	r16
    21d8:	aa f7       	brpl	.-22     	; 0x21c4 <__lshrdi3+0x1e>
    21da:	0f 91       	pop	r16
    21dc:	08 95       	ret

000021de <__rotldi3>:
    21de:	0f 93       	push	r16
    21e0:	08 30       	cpi	r16, 0x08	; 8
    21e2:	a0 f0       	brcs	.+40     	; 0x220c <__rotldi3+0x2e>
    21e4:	08 50       	subi	r16, 0x08	; 8
    21e6:	09 2e       	mov	r0, r25
    21e8:	98 2f       	mov	r25, r24
    21ea:	87 2f       	mov	r24, r23
    21ec:	76 2f       	mov	r23, r22
    21ee:	65 2f       	mov	r22, r21
    21f0:	54 2f       	mov	r21, r20
    21f2:	43 2f       	mov	r20, r19
    21f4:	32 2f       	mov	r19, r18
    21f6:	20 2d       	mov	r18, r0
    21f8:	f3 cf       	rjmp	.-26     	; 0x21e0 <__rotldi3+0x2>
    21fa:	22 0f       	add	r18, r18
    21fc:	33 1f       	adc	r19, r19
    21fe:	44 1f       	adc	r20, r20
    2200:	55 1f       	adc	r21, r21
    2202:	66 1f       	adc	r22, r22
    2204:	77 1f       	adc	r23, r23
    2206:	88 1f       	adc	r24, r24
    2208:	99 1f       	adc	r25, r25
    220a:	21 1d       	adc	r18, r1
    220c:	0a 95       	dec	r16
    220e:	aa f7       	brpl	.-22     	; 0x21fa <__rotldi3+0x1c>
    2210:	0f 91       	pop	r16
    2212:	08 95       	ret

00002214 <__adddi3>:
    2214:	2a 0d       	add	r18, r10
    2216:	3b 1d       	adc	r19, r11
    2218:	4c 1d       	adc	r20, r12
    221a:	5d 1d       	adc	r21, r13
    221c:	6e 1d       	adc	r22, r14
    221e:	7f 1d       	adc	r23, r15
    2220:	80 1f       	adc	r24, r16
    2222:	91 1f       	adc	r25, r17
    2224:	08 95       	ret

00002226 <__cmpdi2_s8>:
    2226:	00 24       	eor	r0, r0
    2228:	a7 fd       	sbrc	r26, 7
    222a:	00 94       	com	r0
    222c:	2a 17       	cp	r18, r26
    222e:	30 05       	cpc	r19, r0
    2230:	40 05       	cpc	r20, r0
    2232:	50 05       	cpc	r21, r0
    2234:	60 05       	cpc	r22, r0
    2236:	70 05       	cpc	r23, r0
    2238:	80 05       	cpc	r24, r0
    223a:	90 05       	cpc	r25, r0
    223c:	08 95       	ret

0000223e <__ftoa_engine>:
    223e:	28 30       	cpi	r18, 0x08	; 8
    2240:	08 f0       	brcs	.+2      	; 0x2244 <__ftoa_engine+0x6>
    2242:	27 e0       	ldi	r18, 0x07	; 7
    2244:	33 27       	eor	r19, r19
    2246:	da 01       	movw	r26, r20
    2248:	99 0f       	add	r25, r25
    224a:	31 1d       	adc	r19, r1
    224c:	87 fd       	sbrc	r24, 7
    224e:	91 60       	ori	r25, 0x01	; 1
    2250:	00 96       	adiw	r24, 0x00	; 0
    2252:	61 05       	cpc	r22, r1
    2254:	71 05       	cpc	r23, r1
    2256:	39 f4       	brne	.+14     	; 0x2266 <__ftoa_engine+0x28>
    2258:	32 60       	ori	r19, 0x02	; 2
    225a:	2e 5f       	subi	r18, 0xFE	; 254
    225c:	3d 93       	st	X+, r19
    225e:	30 e3       	ldi	r19, 0x30	; 48
    2260:	2a 95       	dec	r18
    2262:	e1 f7       	brne	.-8      	; 0x225c <__ftoa_engine+0x1e>
    2264:	08 95       	ret
    2266:	9f 3f       	cpi	r25, 0xFF	; 255
    2268:	30 f0       	brcs	.+12     	; 0x2276 <__ftoa_engine+0x38>
    226a:	80 38       	cpi	r24, 0x80	; 128
    226c:	71 05       	cpc	r23, r1
    226e:	61 05       	cpc	r22, r1
    2270:	09 f0       	breq	.+2      	; 0x2274 <__ftoa_engine+0x36>
    2272:	3c 5f       	subi	r19, 0xFC	; 252
    2274:	3c 5f       	subi	r19, 0xFC	; 252
    2276:	3d 93       	st	X+, r19
    2278:	91 30       	cpi	r25, 0x01	; 1
    227a:	08 f0       	brcs	.+2      	; 0x227e <__ftoa_engine+0x40>
    227c:	80 68       	ori	r24, 0x80	; 128
    227e:	91 1d       	adc	r25, r1
    2280:	df 93       	push	r29
    2282:	cf 93       	push	r28
    2284:	1f 93       	push	r17
    2286:	0f 93       	push	r16
    2288:	ff 92       	push	r15
    228a:	ef 92       	push	r14
    228c:	19 2f       	mov	r17, r25
    228e:	98 7f       	andi	r25, 0xF8	; 248
    2290:	96 95       	lsr	r25
    2292:	e9 2f       	mov	r30, r25
    2294:	96 95       	lsr	r25
    2296:	96 95       	lsr	r25
    2298:	e9 0f       	add	r30, r25
    229a:	ff 27       	eor	r31, r31
    229c:	e6 53       	subi	r30, 0x36	; 54
    229e:	ff 4f       	sbci	r31, 0xFF	; 255
    22a0:	99 27       	eor	r25, r25
    22a2:	33 27       	eor	r19, r19
    22a4:	ee 24       	eor	r14, r14
    22a6:	ff 24       	eor	r15, r15
    22a8:	a7 01       	movw	r20, r14
    22aa:	e7 01       	movw	r28, r14
    22ac:	05 90       	lpm	r0, Z+
    22ae:	08 94       	sec
    22b0:	07 94       	ror	r0
    22b2:	28 f4       	brcc	.+10     	; 0x22be <__ftoa_engine+0x80>
    22b4:	36 0f       	add	r19, r22
    22b6:	e7 1e       	adc	r14, r23
    22b8:	f8 1e       	adc	r15, r24
    22ba:	49 1f       	adc	r20, r25
    22bc:	51 1d       	adc	r21, r1
    22be:	66 0f       	add	r22, r22
    22c0:	77 1f       	adc	r23, r23
    22c2:	88 1f       	adc	r24, r24
    22c4:	99 1f       	adc	r25, r25
    22c6:	06 94       	lsr	r0
    22c8:	a1 f7       	brne	.-24     	; 0x22b2 <__ftoa_engine+0x74>
    22ca:	05 90       	lpm	r0, Z+
    22cc:	07 94       	ror	r0
    22ce:	28 f4       	brcc	.+10     	; 0x22da <__ftoa_engine+0x9c>
    22d0:	e7 0e       	add	r14, r23
    22d2:	f8 1e       	adc	r15, r24
    22d4:	49 1f       	adc	r20, r25
    22d6:	56 1f       	adc	r21, r22
    22d8:	c1 1d       	adc	r28, r1
    22da:	77 0f       	add	r23, r23
    22dc:	88 1f       	adc	r24, r24
    22de:	99 1f       	adc	r25, r25
    22e0:	66 1f       	adc	r22, r22
    22e2:	06 94       	lsr	r0
    22e4:	a1 f7       	brne	.-24     	; 0x22ce <__ftoa_engine+0x90>
    22e6:	05 90       	lpm	r0, Z+
    22e8:	07 94       	ror	r0
    22ea:	28 f4       	brcc	.+10     	; 0x22f6 <__ftoa_engine+0xb8>
    22ec:	f8 0e       	add	r15, r24
    22ee:	49 1f       	adc	r20, r25
    22f0:	56 1f       	adc	r21, r22
    22f2:	c7 1f       	adc	r28, r23
    22f4:	d1 1d       	adc	r29, r1
    22f6:	88 0f       	add	r24, r24
    22f8:	99 1f       	adc	r25, r25
    22fa:	66 1f       	adc	r22, r22
    22fc:	77 1f       	adc	r23, r23
    22fe:	06 94       	lsr	r0
    2300:	a1 f7       	brne	.-24     	; 0x22ea <__ftoa_engine+0xac>
    2302:	05 90       	lpm	r0, Z+
    2304:	07 94       	ror	r0
    2306:	20 f4       	brcc	.+8      	; 0x2310 <__ftoa_engine+0xd2>
    2308:	49 0f       	add	r20, r25
    230a:	56 1f       	adc	r21, r22
    230c:	c7 1f       	adc	r28, r23
    230e:	d8 1f       	adc	r29, r24
    2310:	99 0f       	add	r25, r25
    2312:	66 1f       	adc	r22, r22
    2314:	77 1f       	adc	r23, r23
    2316:	88 1f       	adc	r24, r24
    2318:	06 94       	lsr	r0
    231a:	a9 f7       	brne	.-22     	; 0x2306 <__ftoa_engine+0xc8>
    231c:	84 91       	lpm	r24, Z
    231e:	10 95       	com	r17
    2320:	17 70       	andi	r17, 0x07	; 7
    2322:	41 f0       	breq	.+16     	; 0x2334 <__ftoa_engine+0xf6>
    2324:	d6 95       	lsr	r29
    2326:	c7 95       	ror	r28
    2328:	57 95       	ror	r21
    232a:	47 95       	ror	r20
    232c:	f7 94       	ror	r15
    232e:	e7 94       	ror	r14
    2330:	1a 95       	dec	r17
    2332:	c1 f7       	brne	.-16     	; 0x2324 <__ftoa_engine+0xe6>
    2334:	e0 e7       	ldi	r30, 0x70	; 112
    2336:	f0 e0       	ldi	r31, 0x00	; 0
    2338:	68 94       	set
    233a:	15 90       	lpm	r1, Z+
    233c:	15 91       	lpm	r17, Z+
    233e:	35 91       	lpm	r19, Z+
    2340:	65 91       	lpm	r22, Z+
    2342:	95 91       	lpm	r25, Z+
    2344:	05 90       	lpm	r0, Z+
    2346:	7f e2       	ldi	r23, 0x2F	; 47
    2348:	73 95       	inc	r23
    234a:	e1 18       	sub	r14, r1
    234c:	f1 0a       	sbc	r15, r17
    234e:	43 0b       	sbc	r20, r19
    2350:	56 0b       	sbc	r21, r22
    2352:	c9 0b       	sbc	r28, r25
    2354:	d0 09       	sbc	r29, r0
    2356:	c0 f7       	brcc	.-16     	; 0x2348 <__ftoa_engine+0x10a>
    2358:	e1 0c       	add	r14, r1
    235a:	f1 1e       	adc	r15, r17
    235c:	43 1f       	adc	r20, r19
    235e:	56 1f       	adc	r21, r22
    2360:	c9 1f       	adc	r28, r25
    2362:	d0 1d       	adc	r29, r0
    2364:	7e f4       	brtc	.+30     	; 0x2384 <__ftoa_engine+0x146>
    2366:	70 33       	cpi	r23, 0x30	; 48
    2368:	11 f4       	brne	.+4      	; 0x236e <__ftoa_engine+0x130>
    236a:	8a 95       	dec	r24
    236c:	e6 cf       	rjmp	.-52     	; 0x233a <__ftoa_engine+0xfc>
    236e:	e8 94       	clt
    2370:	01 50       	subi	r16, 0x01	; 1
    2372:	30 f0       	brcs	.+12     	; 0x2380 <__ftoa_engine+0x142>
    2374:	08 0f       	add	r16, r24
    2376:	0a f4       	brpl	.+2      	; 0x237a <__ftoa_engine+0x13c>
    2378:	00 27       	eor	r16, r16
    237a:	02 17       	cp	r16, r18
    237c:	08 f4       	brcc	.+2      	; 0x2380 <__ftoa_engine+0x142>
    237e:	20 2f       	mov	r18, r16
    2380:	23 95       	inc	r18
    2382:	02 2f       	mov	r16, r18
    2384:	7a 33       	cpi	r23, 0x3A	; 58
    2386:	28 f0       	brcs	.+10     	; 0x2392 <__ftoa_engine+0x154>
    2388:	79 e3       	ldi	r23, 0x39	; 57
    238a:	7d 93       	st	X+, r23
    238c:	2a 95       	dec	r18
    238e:	e9 f7       	brne	.-6      	; 0x238a <__ftoa_engine+0x14c>
    2390:	10 c0       	rjmp	.+32     	; 0x23b2 <__ftoa_engine+0x174>
    2392:	7d 93       	st	X+, r23
    2394:	2a 95       	dec	r18
    2396:	89 f6       	brne	.-94     	; 0x233a <__ftoa_engine+0xfc>
    2398:	06 94       	lsr	r0
    239a:	97 95       	ror	r25
    239c:	67 95       	ror	r22
    239e:	37 95       	ror	r19
    23a0:	17 95       	ror	r17
    23a2:	17 94       	ror	r1
    23a4:	e1 18       	sub	r14, r1
    23a6:	f1 0a       	sbc	r15, r17
    23a8:	43 0b       	sbc	r20, r19
    23aa:	56 0b       	sbc	r21, r22
    23ac:	c9 0b       	sbc	r28, r25
    23ae:	d0 09       	sbc	r29, r0
    23b0:	98 f0       	brcs	.+38     	; 0x23d8 <__ftoa_engine+0x19a>
    23b2:	23 95       	inc	r18
    23b4:	7e 91       	ld	r23, -X
    23b6:	73 95       	inc	r23
    23b8:	7a 33       	cpi	r23, 0x3A	; 58
    23ba:	08 f0       	brcs	.+2      	; 0x23be <__ftoa_engine+0x180>
    23bc:	70 e3       	ldi	r23, 0x30	; 48
    23be:	7c 93       	st	X, r23
    23c0:	20 13       	cpse	r18, r16
    23c2:	b8 f7       	brcc	.-18     	; 0x23b2 <__ftoa_engine+0x174>
    23c4:	7e 91       	ld	r23, -X
    23c6:	70 61       	ori	r23, 0x10	; 16
    23c8:	7d 93       	st	X+, r23
    23ca:	30 f0       	brcs	.+12     	; 0x23d8 <__ftoa_engine+0x19a>
    23cc:	83 95       	inc	r24
    23ce:	71 e3       	ldi	r23, 0x31	; 49
    23d0:	7d 93       	st	X+, r23
    23d2:	70 e3       	ldi	r23, 0x30	; 48
    23d4:	2a 95       	dec	r18
    23d6:	e1 f7       	brne	.-8      	; 0x23d0 <__ftoa_engine+0x192>
    23d8:	11 24       	eor	r1, r1
    23da:	ef 90       	pop	r14
    23dc:	ff 90       	pop	r15
    23de:	0f 91       	pop	r16
    23e0:	1f 91       	pop	r17
    23e2:	cf 91       	pop	r28
    23e4:	df 91       	pop	r29
    23e6:	99 27       	eor	r25, r25
    23e8:	87 fd       	sbrc	r24, 7
    23ea:	90 95       	com	r25
    23ec:	08 95       	ret

000023ee <strnlen_P>:
    23ee:	fc 01       	movw	r30, r24
    23f0:	05 90       	lpm	r0, Z+
    23f2:	61 50       	subi	r22, 0x01	; 1
    23f4:	70 40       	sbci	r23, 0x00	; 0
    23f6:	01 10       	cpse	r0, r1
    23f8:	d8 f7       	brcc	.-10     	; 0x23f0 <strnlen_P+0x2>
    23fa:	80 95       	com	r24
    23fc:	90 95       	com	r25
    23fe:	8e 0f       	add	r24, r30
    2400:	9f 1f       	adc	r25, r31
    2402:	08 95       	ret

00002404 <memcpy>:
    2404:	fb 01       	movw	r30, r22
    2406:	dc 01       	movw	r26, r24
    2408:	02 c0       	rjmp	.+4      	; 0x240e <memcpy+0xa>
    240a:	01 90       	ld	r0, Z+
    240c:	0d 92       	st	X+, r0
    240e:	41 50       	subi	r20, 0x01	; 1
    2410:	50 40       	sbci	r21, 0x00	; 0
    2412:	d8 f7       	brcc	.-10     	; 0x240a <memcpy+0x6>
    2414:	08 95       	ret

00002416 <strnlen>:
    2416:	fc 01       	movw	r30, r24
    2418:	61 50       	subi	r22, 0x01	; 1
    241a:	70 40       	sbci	r23, 0x00	; 0
    241c:	01 90       	ld	r0, Z+
    241e:	01 10       	cpse	r0, r1
    2420:	d8 f7       	brcc	.-10     	; 0x2418 <strnlen+0x2>
    2422:	80 95       	com	r24
    2424:	90 95       	com	r25
    2426:	8e 0f       	add	r24, r30
    2428:	9f 1f       	adc	r25, r31
    242a:	08 95       	ret

0000242c <fputc>:
    242c:	0f 93       	push	r16
    242e:	1f 93       	push	r17
    2430:	cf 93       	push	r28
    2432:	df 93       	push	r29
    2434:	fb 01       	movw	r30, r22
    2436:	23 81       	ldd	r18, Z+3	; 0x03
    2438:	21 fd       	sbrc	r18, 1
    243a:	03 c0       	rjmp	.+6      	; 0x2442 <fputc+0x16>
    243c:	8f ef       	ldi	r24, 0xFF	; 255
    243e:	9f ef       	ldi	r25, 0xFF	; 255
    2440:	2c c0       	rjmp	.+88     	; 0x249a <fputc+0x6e>
    2442:	22 ff       	sbrs	r18, 2
    2444:	16 c0       	rjmp	.+44     	; 0x2472 <fputc+0x46>
    2446:	46 81       	ldd	r20, Z+6	; 0x06
    2448:	57 81       	ldd	r21, Z+7	; 0x07
    244a:	24 81       	ldd	r18, Z+4	; 0x04
    244c:	35 81       	ldd	r19, Z+5	; 0x05
    244e:	42 17       	cp	r20, r18
    2450:	53 07       	cpc	r21, r19
    2452:	44 f4       	brge	.+16     	; 0x2464 <fputc+0x38>
    2454:	a0 81       	ld	r26, Z
    2456:	b1 81       	ldd	r27, Z+1	; 0x01
    2458:	9d 01       	movw	r18, r26
    245a:	2f 5f       	subi	r18, 0xFF	; 255
    245c:	3f 4f       	sbci	r19, 0xFF	; 255
    245e:	31 83       	std	Z+1, r19	; 0x01
    2460:	20 83       	st	Z, r18
    2462:	8c 93       	st	X, r24
    2464:	26 81       	ldd	r18, Z+6	; 0x06
    2466:	37 81       	ldd	r19, Z+7	; 0x07
    2468:	2f 5f       	subi	r18, 0xFF	; 255
    246a:	3f 4f       	sbci	r19, 0xFF	; 255
    246c:	37 83       	std	Z+7, r19	; 0x07
    246e:	26 83       	std	Z+6, r18	; 0x06
    2470:	14 c0       	rjmp	.+40     	; 0x249a <fputc+0x6e>
    2472:	8b 01       	movw	r16, r22
    2474:	ec 01       	movw	r28, r24
    2476:	fb 01       	movw	r30, r22
    2478:	00 84       	ldd	r0, Z+8	; 0x08
    247a:	f1 85       	ldd	r31, Z+9	; 0x09
    247c:	e0 2d       	mov	r30, r0
    247e:	09 95       	icall
    2480:	89 2b       	or	r24, r25
    2482:	e1 f6       	brne	.-72     	; 0x243c <fputc+0x10>
    2484:	d8 01       	movw	r26, r16
    2486:	16 96       	adiw	r26, 0x06	; 6
    2488:	8d 91       	ld	r24, X+
    248a:	9c 91       	ld	r25, X
    248c:	17 97       	sbiw	r26, 0x07	; 7
    248e:	01 96       	adiw	r24, 0x01	; 1
    2490:	17 96       	adiw	r26, 0x07	; 7
    2492:	9c 93       	st	X, r25
    2494:	8e 93       	st	-X, r24
    2496:	16 97       	sbiw	r26, 0x06	; 6
    2498:	ce 01       	movw	r24, r28
    249a:	df 91       	pop	r29
    249c:	cf 91       	pop	r28
    249e:	1f 91       	pop	r17
    24a0:	0f 91       	pop	r16
    24a2:	08 95       	ret

000024a4 <sprintf>:
    24a4:	ae e0       	ldi	r26, 0x0E	; 14
    24a6:	b0 e0       	ldi	r27, 0x00	; 0
    24a8:	e8 e5       	ldi	r30, 0x58	; 88
    24aa:	f2 e1       	ldi	r31, 0x12	; 18
    24ac:	0c 94 8f 10 	jmp	0x211e	; 0x211e <__prologue_saves__+0x1c>
    24b0:	0d 89       	ldd	r16, Y+21	; 0x15
    24b2:	1e 89       	ldd	r17, Y+22	; 0x16
    24b4:	86 e0       	ldi	r24, 0x06	; 6
    24b6:	8c 83       	std	Y+4, r24	; 0x04
    24b8:	1a 83       	std	Y+2, r17	; 0x02
    24ba:	09 83       	std	Y+1, r16	; 0x01
    24bc:	8f ef       	ldi	r24, 0xFF	; 255
    24be:	9f e7       	ldi	r25, 0x7F	; 127
    24c0:	9e 83       	std	Y+6, r25	; 0x06
    24c2:	8d 83       	std	Y+5, r24	; 0x05
    24c4:	ae 01       	movw	r20, r28
    24c6:	47 5e       	subi	r20, 0xE7	; 231
    24c8:	5f 4f       	sbci	r21, 0xFF	; 255
    24ca:	6f 89       	ldd	r22, Y+23	; 0x17
    24cc:	78 8d       	ldd	r23, Y+24	; 0x18
    24ce:	ce 01       	movw	r24, r28
    24d0:	01 96       	adiw	r24, 0x01	; 1
    24d2:	0e 94 74 0c 	call	0x18e8	; 0x18e8 <vfprintf>
    24d6:	ef 81       	ldd	r30, Y+7	; 0x07
    24d8:	f8 85       	ldd	r31, Y+8	; 0x08
    24da:	e0 0f       	add	r30, r16
    24dc:	f1 1f       	adc	r31, r17
    24de:	10 82       	st	Z, r1
    24e0:	2e 96       	adiw	r28, 0x0e	; 14
    24e2:	e4 e0       	ldi	r30, 0x04	; 4
    24e4:	0c 94 ab 10 	jmp	0x2156	; 0x2156 <__epilogue_restores__+0x1c>

000024e8 <__ultoa_invert>:
    24e8:	fa 01       	movw	r30, r20
    24ea:	aa 27       	eor	r26, r26
    24ec:	28 30       	cpi	r18, 0x08	; 8
    24ee:	51 f1       	breq	.+84     	; 0x2544 <__ultoa_invert+0x5c>
    24f0:	20 31       	cpi	r18, 0x10	; 16
    24f2:	81 f1       	breq	.+96     	; 0x2554 <__ultoa_invert+0x6c>
    24f4:	e8 94       	clt
    24f6:	6f 93       	push	r22
    24f8:	6e 7f       	andi	r22, 0xFE	; 254
    24fa:	6e 5f       	subi	r22, 0xFE	; 254
    24fc:	7f 4f       	sbci	r23, 0xFF	; 255
    24fe:	8f 4f       	sbci	r24, 0xFF	; 255
    2500:	9f 4f       	sbci	r25, 0xFF	; 255
    2502:	af 4f       	sbci	r26, 0xFF	; 255
    2504:	b1 e0       	ldi	r27, 0x01	; 1
    2506:	3e d0       	rcall	.+124    	; 0x2584 <__ultoa_invert+0x9c>
    2508:	b4 e0       	ldi	r27, 0x04	; 4
    250a:	3c d0       	rcall	.+120    	; 0x2584 <__ultoa_invert+0x9c>
    250c:	67 0f       	add	r22, r23
    250e:	78 1f       	adc	r23, r24
    2510:	89 1f       	adc	r24, r25
    2512:	9a 1f       	adc	r25, r26
    2514:	a1 1d       	adc	r26, r1
    2516:	68 0f       	add	r22, r24
    2518:	79 1f       	adc	r23, r25
    251a:	8a 1f       	adc	r24, r26
    251c:	91 1d       	adc	r25, r1
    251e:	a1 1d       	adc	r26, r1
    2520:	6a 0f       	add	r22, r26
    2522:	71 1d       	adc	r23, r1
    2524:	81 1d       	adc	r24, r1
    2526:	91 1d       	adc	r25, r1
    2528:	a1 1d       	adc	r26, r1
    252a:	20 d0       	rcall	.+64     	; 0x256c <__ultoa_invert+0x84>
    252c:	09 f4       	brne	.+2      	; 0x2530 <__ultoa_invert+0x48>
    252e:	68 94       	set
    2530:	3f 91       	pop	r19
    2532:	2a e0       	ldi	r18, 0x0A	; 10
    2534:	26 9f       	mul	r18, r22
    2536:	11 24       	eor	r1, r1
    2538:	30 19       	sub	r19, r0
    253a:	30 5d       	subi	r19, 0xD0	; 208
    253c:	31 93       	st	Z+, r19
    253e:	de f6       	brtc	.-74     	; 0x24f6 <__ultoa_invert+0xe>
    2540:	cf 01       	movw	r24, r30
    2542:	08 95       	ret
    2544:	46 2f       	mov	r20, r22
    2546:	47 70       	andi	r20, 0x07	; 7
    2548:	40 5d       	subi	r20, 0xD0	; 208
    254a:	41 93       	st	Z+, r20
    254c:	b3 e0       	ldi	r27, 0x03	; 3
    254e:	0f d0       	rcall	.+30     	; 0x256e <__ultoa_invert+0x86>
    2550:	c9 f7       	brne	.-14     	; 0x2544 <__ultoa_invert+0x5c>
    2552:	f6 cf       	rjmp	.-20     	; 0x2540 <__ultoa_invert+0x58>
    2554:	46 2f       	mov	r20, r22
    2556:	4f 70       	andi	r20, 0x0F	; 15
    2558:	40 5d       	subi	r20, 0xD0	; 208
    255a:	4a 33       	cpi	r20, 0x3A	; 58
    255c:	18 f0       	brcs	.+6      	; 0x2564 <__ultoa_invert+0x7c>
    255e:	49 5d       	subi	r20, 0xD9	; 217
    2560:	31 fd       	sbrc	r19, 1
    2562:	40 52       	subi	r20, 0x20	; 32
    2564:	41 93       	st	Z+, r20
    2566:	02 d0       	rcall	.+4      	; 0x256c <__ultoa_invert+0x84>
    2568:	a9 f7       	brne	.-22     	; 0x2554 <__ultoa_invert+0x6c>
    256a:	ea cf       	rjmp	.-44     	; 0x2540 <__ultoa_invert+0x58>
    256c:	b4 e0       	ldi	r27, 0x04	; 4
    256e:	a6 95       	lsr	r26
    2570:	97 95       	ror	r25
    2572:	87 95       	ror	r24
    2574:	77 95       	ror	r23
    2576:	67 95       	ror	r22
    2578:	ba 95       	dec	r27
    257a:	c9 f7       	brne	.-14     	; 0x256e <__ultoa_invert+0x86>
    257c:	00 97       	sbiw	r24, 0x00	; 0
    257e:	61 05       	cpc	r22, r1
    2580:	71 05       	cpc	r23, r1
    2582:	08 95       	ret
    2584:	9b 01       	movw	r18, r22
    2586:	ac 01       	movw	r20, r24
    2588:	0a 2e       	mov	r0, r26
    258a:	06 94       	lsr	r0
    258c:	57 95       	ror	r21
    258e:	47 95       	ror	r20
    2590:	37 95       	ror	r19
    2592:	27 95       	ror	r18
    2594:	ba 95       	dec	r27
    2596:	c9 f7       	brne	.-14     	; 0x258a <__ultoa_invert+0xa2>
    2598:	62 0f       	add	r22, r18
    259a:	73 1f       	adc	r23, r19
    259c:	84 1f       	adc	r24, r20
    259e:	95 1f       	adc	r25, r21
    25a0:	a0 1d       	adc	r26, r0
    25a2:	08 95       	ret

000025a4 <eeprom_read_block>:
    25a4:	dc 01       	movw	r26, r24
    25a6:	cb 01       	movw	r24, r22

000025a8 <eeprom_read_blraw>:
    25a8:	fc 01       	movw	r30, r24
    25aa:	f9 99       	sbic	0x1f, 1	; 31
    25ac:	fe cf       	rjmp	.-4      	; 0x25aa <eeprom_read_blraw+0x2>
    25ae:	06 c0       	rjmp	.+12     	; 0x25bc <eeprom_read_blraw+0x14>
    25b0:	f2 bd       	out	0x22, r31	; 34
    25b2:	e1 bd       	out	0x21, r30	; 33
    25b4:	f8 9a       	sbi	0x1f, 0	; 31
    25b6:	31 96       	adiw	r30, 0x01	; 1
    25b8:	00 b4       	in	r0, 0x20	; 32
    25ba:	0d 92       	st	X+, r0
    25bc:	41 50       	subi	r20, 0x01	; 1
    25be:	50 40       	sbci	r21, 0x00	; 0
    25c0:	b8 f7       	brcc	.-18     	; 0x25b0 <eeprom_read_blraw+0x8>
    25c2:	08 95       	ret

000025c4 <eeprom_read_byte>:
    25c4:	f9 99       	sbic	0x1f, 1	; 31
    25c6:	fe cf       	rjmp	.-4      	; 0x25c4 <eeprom_read_byte>
    25c8:	92 bd       	out	0x22, r25	; 34
    25ca:	81 bd       	out	0x21, r24	; 33
    25cc:	f8 9a       	sbi	0x1f, 0	; 31
    25ce:	99 27       	eor	r25, r25
    25d0:	80 b5       	in	r24, 0x20	; 32
    25d2:	08 95       	ret

000025d4 <eeprom_read_word>:
    25d4:	a8 e1       	ldi	r26, 0x18	; 24
    25d6:	b0 e0       	ldi	r27, 0x00	; 0
    25d8:	42 e0       	ldi	r20, 0x02	; 2
    25da:	50 e0       	ldi	r21, 0x00	; 0
    25dc:	0c 94 d4 12 	jmp	0x25a8	; 0x25a8 <eeprom_read_blraw>

000025e0 <eeprom_update_block>:
    25e0:	dc 01       	movw	r26, r24
    25e2:	a4 0f       	add	r26, r20
    25e4:	b5 1f       	adc	r27, r21
    25e6:	41 50       	subi	r20, 0x01	; 1
    25e8:	50 40       	sbci	r21, 0x00	; 0
    25ea:	48 f0       	brcs	.+18     	; 0x25fe <eeprom_update_block+0x1e>
    25ec:	cb 01       	movw	r24, r22
    25ee:	84 0f       	add	r24, r20
    25f0:	95 1f       	adc	r25, r21
    25f2:	2e 91       	ld	r18, -X
    25f4:	0e 94 01 13 	call	0x2602	; 0x2602 <eeprom_update_r18>
    25f8:	41 50       	subi	r20, 0x01	; 1
    25fa:	50 40       	sbci	r21, 0x00	; 0
    25fc:	d0 f7       	brcc	.-12     	; 0x25f2 <eeprom_update_block+0x12>
    25fe:	08 95       	ret

00002600 <eeprom_update_byte>:
    2600:	26 2f       	mov	r18, r22

00002602 <eeprom_update_r18>:
    2602:	f9 99       	sbic	0x1f, 1	; 31
    2604:	fe cf       	rjmp	.-4      	; 0x2602 <eeprom_update_r18>
    2606:	92 bd       	out	0x22, r25	; 34
    2608:	81 bd       	out	0x21, r24	; 33
    260a:	f8 9a       	sbi	0x1f, 0	; 31
    260c:	01 97       	sbiw	r24, 0x01	; 1
    260e:	00 b4       	in	r0, 0x20	; 32
    2610:	02 16       	cp	r0, r18
    2612:	39 f0       	breq	.+14     	; 0x2622 <eeprom_update_r18+0x20>
    2614:	1f ba       	out	0x1f, r1	; 31
    2616:	20 bd       	out	0x20, r18	; 32
    2618:	0f b6       	in	r0, 0x3f	; 63
    261a:	f8 94       	cli
    261c:	fa 9a       	sbi	0x1f, 2	; 31
    261e:	f9 9a       	sbi	0x1f, 1	; 31
    2620:	0f be       	out	0x3f, r0	; 63
    2622:	08 95       	ret

00002624 <eeprom_update_word>:
    2624:	01 96       	adiw	r24, 0x01	; 1
    2626:	27 2f       	mov	r18, r23
    2628:	0e 94 01 13 	call	0x2602	; 0x2602 <eeprom_update_r18>
    262c:	0c 94 00 13 	jmp	0x2600	; 0x2600 <eeprom_update_byte>

00002630 <_exit>:
    2630:	f8 94       	cli

00002632 <__stop_program>:
    2632:	ff cf       	rjmp	.-2      	; 0x2632 <__stop_program>
